

Microchip MPLAB XC8 Assembler V2.35 build 20211206165544 
                                                                                               Sat May 14 18:35:41 2022

Microchip MPLAB XC8 C Compiler v2.35 (Free license) build 20211206165544 Og1 
     1                           	processor	16F887
     2                           	pagewidth 120
     3                           	opt	flic
     4                           	psect	cinit,global,class=CODE,merge=1,delta=2
     5                           	psect	bssBANK0,global,class=BANK0,space=1,delta=1,noexec
     6                           	psect	bssBANK1,global,class=BANK1,space=1,delta=1,noexec
     7                           	psect	cstackBANK1,global,class=BANK1,space=1,delta=1,noexec
     8                           	psect	cstackCOMMON,global,class=COMMON,space=1,delta=1,noexec
     9                           	psect	cstackBANK0,global,class=BANK0,space=1,delta=1,noexec
    10                           	psect	maintext,global,class=CODE,split=1,delta=2
    11                           	psect	text1,local,class=CODE,merge=1,delta=2
    12                           	psect	text2,local,class=CODE,merge=1,delta=2
    13                           	psect	intentry,global,class=CODE,delta=2
    14                           	psect	text3,local,class=CODE,merge=1,delta=2
    15                           	psect	text4,local,class=CODE,merge=1,delta=2,group=1
    16                           	psect	text5,local,class=CODE,merge=1,delta=2,group=1
    17                           	psect	text6,local,class=CODE,merge=1,delta=2,group=1
    18                           	psect	text7,local,class=CODE,merge=1,delta=2,group=1
    19                           	psect	text8,local,class=CODE,merge=1,delta=2,group=1
    20                           	psect	text9,local,class=CODE,merge=1,delta=2,group=1
    21                           	psect	idloc,global,abs,ovrld,class=IDLOC,space=5,delta=2,noexec
    22                           	psect	config,global,abs,ovrld,class=CONFIG,space=4,delta=2,noexec
    23                           	dabs	1,0x7E,2
    24  0000                     
    25                           ; Version 2.40
    26                           ; Generated 17/11/2021 GMT
    27                           ; 
    28                           ; Copyright © 2021, Microchip Technology Inc. and its subsidiaries ("Microchip")
    29                           ; All rights reserved.
    30                           ; 
    31                           ; This software is developed by Microchip Technology Inc. and its subsidiaries ("Microch
      +                          ip").
    32                           ; 
    33                           ; Redistribution and use in source and binary forms, with or without modification, are
    34                           ; permitted provided that the following conditions are met:
    35                           ; 
    36                           ;     1. Redistributions of source code must retain the above copyright notice, this lis
      +                          t of
    37                           ;        conditions and the following disclaimer.
    38                           ; 
    39                           ;     2. Redistributions in binary form must reproduce the above copyright notice, this 
      +                          list
    40                           ;        of conditions and the following disclaimer in the documentation and/or other
    41                           ;        materials provided with the distribution. Publication is not required when
    42                           ;        this file is used in an embedded application.
    43                           ; 
    44                           ;     3. Microchip's name may not be used to endorse or promote products derived from th
      +                          is
    45                           ;        software without specific prior written permission.
    46                           ; 
    47                           ; THIS SOFTWARE IS PROVIDED BY MICROCHIP "AS IS" AND ANY EXPRESS OR IMPLIED WARRANTIES,
    48                           ; INCLUDING, BUT NOT LIMITED TO, THE IMPLIED WARRANTIES OF MERCHANTABILITY AND FITNESS F
      +                          OR
    49                           ; PURPOSE ARE DISCLAIMED.  IN NO EVENT SHALL MICROCHIP BE LIABLE FOR ANY DIRECT, INDIREC
      +                          T,
    50                           ; INCIDENTAL, SPECIAL, EXEMPLARY, OR CONSEQUENTIAL DAMAGES (INCLUDING BUT NOT LIMITED TO
    51                           ; PROCUREMENT OF SUBSTITUTE GOODS OR SERVICES; LOSS OF USE, DATA OR PROFITS; OR BUSINESS
    52                           ; INTERRUPTION) HOWSOEVER CAUSED AND ON ANY THEORY OF LIABILITY, WHETHER IN CONTRACT, ST
      +                          RICT
    53                           ; LIABILITY, OR TORT (INCLUDING NEGLIGENCE OR OTHERWISE) ARISING IN ANY WAY OUT OF THE U
      +                          SE OF
    54                           ; THIS SOFTWARE, EVEN IF ADVISED OF THE POSSIBILITY OF SUCH DAMAGE.
    55                           ; 
    56                           ; 
    57                           ; Code-generator required, PIC16F887 Definitions
    58                           ; 
    59                           ; SFR Addresses
    60  0000                     	;# 
    61  0001                     	;# 
    62  0002                     	;# 
    63  0003                     	;# 
    64  0004                     	;# 
    65  0005                     	;# 
    66  0006                     	;# 
    67  0007                     	;# 
    68  0008                     	;# 
    69  0009                     	;# 
    70  000A                     	;# 
    71  000B                     	;# 
    72  000C                     	;# 
    73  000D                     	;# 
    74  000E                     	;# 
    75  000E                     	;# 
    76  000F                     	;# 
    77  0010                     	;# 
    78  0011                     	;# 
    79  0012                     	;# 
    80  0013                     	;# 
    81  0014                     	;# 
    82  0015                     	;# 
    83  0015                     	;# 
    84  0016                     	;# 
    85  0017                     	;# 
    86  0018                     	;# 
    87  0019                     	;# 
    88  001A                     	;# 
    89  001B                     	;# 
    90  001B                     	;# 
    91  001C                     	;# 
    92  001D                     	;# 
    93  001E                     	;# 
    94  001F                     	;# 
    95  0081                     	;# 
    96  0085                     	;# 
    97  0086                     	;# 
    98  0087                     	;# 
    99  0088                     	;# 
   100  0089                     	;# 
   101  008C                     	;# 
   102  008D                     	;# 
   103  008E                     	;# 
   104  008F                     	;# 
   105  0090                     	;# 
   106  0091                     	;# 
   107  0092                     	;# 
   108  0093                     	;# 
   109  0093                     	;# 
   110  0093                     	;# 
   111  0094                     	;# 
   112  0095                     	;# 
   113  0096                     	;# 
   114  0097                     	;# 
   115  0098                     	;# 
   116  0099                     	;# 
   117  009A                     	;# 
   118  009B                     	;# 
   119  009C                     	;# 
   120  009D                     	;# 
   121  009E                     	;# 
   122  009F                     	;# 
   123  0105                     	;# 
   124  0107                     	;# 
   125  0108                     	;# 
   126  0109                     	;# 
   127  010C                     	;# 
   128  010C                     	;# 
   129  010D                     	;# 
   130  010E                     	;# 
   131  010F                     	;# 
   132  0185                     	;# 
   133  0187                     	;# 
   134  0188                     	;# 
   135  0189                     	;# 
   136  018C                     	;# 
   137  018D                     	;# 
   138  0000                     	;# 
   139  0001                     	;# 
   140  0002                     	;# 
   141  0003                     	;# 
   142  0004                     	;# 
   143  0005                     	;# 
   144  0006                     	;# 
   145  0007                     	;# 
   146  0008                     	;# 
   147  0009                     	;# 
   148  000A                     	;# 
   149  000B                     	;# 
   150  000C                     	;# 
   151  000D                     	;# 
   152  000E                     	;# 
   153  000E                     	;# 
   154  000F                     	;# 
   155  0010                     	;# 
   156  0011                     	;# 
   157  0012                     	;# 
   158  0013                     	;# 
   159  0014                     	;# 
   160  0015                     	;# 
   161  0015                     	;# 
   162  0016                     	;# 
   163  0017                     	;# 
   164  0018                     	;# 
   165  0019                     	;# 
   166  001A                     	;# 
   167  001B                     	;# 
   168  001B                     	;# 
   169  001C                     	;# 
   170  001D                     	;# 
   171  001E                     	;# 
   172  001F                     	;# 
   173  0081                     	;# 
   174  0085                     	;# 
   175  0086                     	;# 
   176  0087                     	;# 
   177  0088                     	;# 
   178  0089                     	;# 
   179  008C                     	;# 
   180  008D                     	;# 
   181  008E                     	;# 
   182  008F                     	;# 
   183  0090                     	;# 
   184  0091                     	;# 
   185  0092                     	;# 
   186  0093                     	;# 
   187  0093                     	;# 
   188  0093                     	;# 
   189  0094                     	;# 
   190  0095                     	;# 
   191  0096                     	;# 
   192  0097                     	;# 
   193  0098                     	;# 
   194  0099                     	;# 
   195  009A                     	;# 
   196  009B                     	;# 
   197  009C                     	;# 
   198  009D                     	;# 
   199  009E                     	;# 
   200  009F                     	;# 
   201  0105                     	;# 
   202  0107                     	;# 
   203  0108                     	;# 
   204  0109                     	;# 
   205  010C                     	;# 
   206  010C                     	;# 
   207  010D                     	;# 
   208  010E                     	;# 
   209  010F                     	;# 
   210  0185                     	;# 
   211  0187                     	;# 
   212  0188                     	;# 
   213  0189                     	;# 
   214  018C                     	;# 
   215  018D                     	;# 
   216  000B                     _INTCONbits	set	11
   217  0012                     _T2CONbits	set	18
   218  0017                     _CCP1CON	set	23
   219  0014                     _SSPCONbits	set	20
   220  0007                     _PORTC	set	7
   221  0005                     _PORTA	set	5
   222  0017                     _CCP1CONbits	set	23
   223  0015                     _CCPR1L	set	21
   224  0013                     _SSPBUF	set	19
   225  000C                     _PIR1bits	set	12
   226  008C                     _PIE1bits	set	140
   227  0092                     _PR2	set	146
   228  0087                     _TRISCbits	set	135
   229  0094                     _SSPSTATbits	set	148
   230  0087                     _TRISC	set	135
   231  008F                     _OSCCONbits	set	143
   232  0085                     _TRISA	set	133
   233  0189                     _ANSELH	set	393
   234  0188                     _ANSEL	set	392
   235                           
   236                           	psect	cinit
   237  0013                     start_initialization:	
   238                           ; #config settings
   239                           
   240  0013                     __initialization:
   241                           
   242                           ; Clear objects allocated to BANK0
   243  0013  1283               	bcf	3,5	;RP0=0, select bank0
   244  0014  1303               	bcf	3,6	;RP1=0, select bank0
   245  0015  01EF               	clrf	__pbssBANK0& (0+127)
   246                           
   247                           ; Clear objects allocated to BANK1
   248  0016  1683               	bsf	3,5	;RP0=1, select bank1
   249  0017  1303               	bcf	3,6	;RP1=0, select bank1
   250  0018  01B0               	clrf	__pbssBANK1& (0+127)
   251  0019  01B1               	clrf	(__pbssBANK1+1)& (0+127)
   252  001A                     end_of_initialization:	
   253                           ;End of C runtime variable initialization code
   254                           
   255  001A                     __end_of__initialization:
   256  001A  0183               	clrf	3
   257  001B  120A  118A  2FE4   	ljmp	_main	;jump to C main() function
   258                           
   259                           	psect	bssBANK0
   260  006F                     __pbssBANK0:
   261  006F                     _pwm_va:
   262  006F                     	ds	1
   263                           
   264                           	psect	bssBANK1
   265  00B0                     __pbssBANK1:
   266  00B0                     _CCPR:
   267  00B0                     	ds	2
   268                           
   269                           	psect	cstackBANK1
   270  00A0                     __pcstackBANK1:
   271  00A0                     ??___fltol:
   272                           
   273                           ; 1 bytes @ 0x0
   274  00A0                     	ds	5
   275  00A5                     ?_interpol:
   276  00A5                     interpol@pot_min:	
   277                           ; 2 bytes @ 0x5
   278                           
   279                           
   280                           ; 1 bytes @ 0x5
   281  00A5                     	ds	1
   282  00A6                     interpol@pot_max:
   283                           
   284                           ; 1 bytes @ 0x6
   285  00A6                     	ds	1
   286  00A7                     interpol@pwm_min:
   287                           
   288                           ; 2 bytes @ 0x7
   289  00A7                     	ds	2
   290  00A9                     interpol@pwm_max:
   291                           
   292                           ; 2 bytes @ 0x9
   293  00A9                     	ds	2
   294  00AB                     ??_isr:
   295                           
   296                           ; 1 bytes @ 0xB
   297  00AB                     	ds	5
   298  00B0                     ??_setup:
   299  00B0                     ??_main:	
   300                           ; 1 bytes @ 0x10
   301                           
   302                           
   303                           	psect	cstackCOMMON
   304  0070                     __pcstackCOMMON:	
   305                           ; 1 bytes @ 0x10
   306                           
   307  0070                     ?_setup:
   308  0070                     ?_isr:	
   309                           ; 1 bytes @ 0x0
   310                           
   311  0070                     ?_main:	
   312                           ; 1 bytes @ 0x0
   313                           
   314  0070                     ?__Umul8_16:	
   315                           ; 1 bytes @ 0x0
   316                           
   317  0070                     ?___xxtofl:	
   318                           ; 2 bytes @ 0x0
   319                           
   320  0070                     __Umul8_16@multiplicand:	
   321                           ; 4 bytes @ 0x0
   322                           
   323  0070                     ___xxtofl@val:	
   324                           ; 1 bytes @ 0x0
   325                           
   326                           
   327                           ; 4 bytes @ 0x0
   328  0070                     	ds	2
   329  0072                     ??__Umul8_16:
   330                           
   331                           ; 1 bytes @ 0x2
   332  0072                     	ds	2
   333  0074                     ??___xxtofl:
   334  0074                     __Umul8_16@product:	
   335                           ; 1 bytes @ 0x4
   336                           
   337                           
   338                           ; 2 bytes @ 0x4
   339  0074                     	ds	2
   340  0076                     __Umul8_16@word_mpld:
   341                           
   342                           ; 2 bytes @ 0x6
   343  0076                     	ds	2
   344  0078                     __Umul8_16@multiplier:
   345  0078                     ___xxtofl@sign:	
   346                           ; 1 bytes @ 0x8
   347                           
   348                           
   349                           ; 1 bytes @ 0x8
   350  0078                     	ds	1
   351  0079                     ___xxtofl@exp:
   352                           
   353                           ; 1 bytes @ 0x9
   354  0079                     	ds	1
   355  007A                     ___xxtofl@arg:
   356                           
   357                           ; 4 bytes @ 0xA
   358  007A                     	ds	4
   359  007E                     ??_interpol:
   360                           
   361                           	psect	cstackBANK0
   362  0020                     __pcstackBANK0:	
   363                           ; 1 bytes @ 0xE
   364                           
   365  0020                     ?___fldiv:
   366  0020                     ___fldiv@a:	
   367                           ; 4 bytes @ 0x0
   368                           
   369                           
   370                           ; 4 bytes @ 0x0
   371  0020                     	ds	4
   372  0024                     ___fldiv@b:
   373                           
   374                           ; 4 bytes @ 0x4
   375  0024                     	ds	4
   376  0028                     ??___fldiv:
   377                           
   378                           ; 1 bytes @ 0x8
   379  0028                     	ds	5
   380  002D                     ___fldiv@rem:
   381                           
   382                           ; 4 bytes @ 0xD
   383  002D                     	ds	4
   384  0031                     ___fldiv@sign:
   385                           
   386                           ; 1 bytes @ 0x11
   387  0031                     	ds	1
   388  0032                     ___fldiv@new_exp:
   389                           
   390                           ; 2 bytes @ 0x12
   391  0032                     	ds	2
   392  0034                     ___fldiv@grs:
   393                           
   394                           ; 4 bytes @ 0x14
   395  0034                     	ds	4
   396  0038                     ___fldiv@bexp:
   397                           
   398                           ; 1 bytes @ 0x18
   399  0038                     	ds	1
   400  0039                     ___fldiv@aexp:
   401                           
   402                           ; 1 bytes @ 0x19
   403  0039                     	ds	1
   404  003A                     ?___flmul:
   405  003A                     ___flmul@b:	
   406                           ; 4 bytes @ 0x1A
   407                           
   408                           
   409                           ; 4 bytes @ 0x1A
   410  003A                     	ds	4
   411  003E                     ___flmul@a:
   412                           
   413                           ; 4 bytes @ 0x1E
   414  003E                     	ds	4
   415  0042                     ??___flmul:
   416                           
   417                           ; 1 bytes @ 0x22
   418  0042                     	ds	5
   419  0047                     ___flmul@sign:
   420                           
   421                           ; 1 bytes @ 0x27
   422  0047                     	ds	1
   423  0048                     ___flmul@grs:
   424                           
   425                           ; 4 bytes @ 0x28
   426  0048                     	ds	4
   427  004C                     ___flmul@aexp:
   428                           
   429                           ; 1 bytes @ 0x2C
   430  004C                     	ds	1
   431  004D                     ___flmul@bexp:
   432                           
   433                           ; 1 bytes @ 0x2D
   434  004D                     	ds	1
   435  004E                     ___flmul@prod:
   436                           
   437                           ; 4 bytes @ 0x2E
   438  004E                     	ds	4
   439  0052                     ___flmul@temp:
   440                           
   441                           ; 2 bytes @ 0x32
   442  0052                     	ds	2
   443  0054                     ?___fladd:
   444  0054                     ___fladd@b:	
   445                           ; 4 bytes @ 0x34
   446                           
   447                           
   448                           ; 4 bytes @ 0x34
   449  0054                     	ds	4
   450  0058                     ___fladd@a:
   451                           
   452                           ; 4 bytes @ 0x38
   453  0058                     	ds	4
   454  005C                     ??___fladd:
   455                           
   456                           ; 1 bytes @ 0x3C
   457  005C                     	ds	8
   458  0064                     ___fladd@signs:
   459                           
   460                           ; 1 bytes @ 0x44
   461  0064                     	ds	1
   462  0065                     ___fladd@aexp:
   463                           
   464                           ; 1 bytes @ 0x45
   465  0065                     	ds	1
   466  0066                     ___fladd@bexp:
   467                           
   468                           ; 1 bytes @ 0x46
   469  0066                     	ds	1
   470  0067                     ___fladd@grs:
   471                           
   472                           ; 1 bytes @ 0x47
   473  0067                     	ds	1
   474  0068                     ?___fltol:
   475  0068                     ___fltol@f1:	
   476                           ; 4 bytes @ 0x48
   477                           
   478                           
   479                           ; 4 bytes @ 0x48
   480  0068                     	ds	4
   481  006C                     ___fltol@sign1:
   482                           
   483                           ; 1 bytes @ 0x4C
   484  006C                     	ds	1
   485  006D                     ___fltol@exp1:
   486                           
   487                           ; 1 bytes @ 0x4D
   488  006D                     	ds	1
   489  006E                     interpol@val:
   490                           
   491                           ; 1 bytes @ 0x4E
   492  006E                     	ds	1
   493                           
   494                           	psect	maintext
   495  07E4                     __pmaintext:	
   496 ;;
   497 ;;Main: autosize = 0, tempsize = 0, incstack = 0, save=0
   498 ;;
   499 ;; *************** function _main *****************
   500 ;; Defined at:
   501 ;;		line 77 in file "lab11_slave_u2-20168.c"
   502 ;; Parameters:    Size  Location     Type
   503 ;;		None
   504 ;; Auto vars:     Size  Location     Type
   505 ;;		None
   506 ;; Return value:  Size  Location     Type
   507 ;;                  1    wreg      void 
   508 ;; Registers used:
   509 ;;		wreg, status,2, status,0, pclath, cstack
   510 ;; Tracked objects:
   511 ;;		On entry : B00/0
   512 ;;		On exit  : 0/0
   513 ;;		Unchanged: 0/0
   514 ;; Data sizes:     COMMON   BANK0   BANK1   BANK3   BANK2
   515 ;;      Params:         0       0       0       0       0
   516 ;;      Locals:         0       0       0       0       0
   517 ;;      Temps:          0       0       0       0       0
   518 ;;      Totals:         0       0       0       0       0
   519 ;;Total ram usage:        0 bytes
   520 ;; Hardware stack levels required when called: 5
   521 ;; This function calls:
   522 ;;		_setup
   523 ;; This function is called by:
   524 ;;		Startup code after reset
   525 ;; This function uses a non-reentrant model
   526 ;;
   527                           
   528  07E4                     _main:	
   529                           ;psect for function _main
   530                           
   531  07E4                     l1919:	
   532                           ;incstack = 0
   533                           ; Regs used in _main: [wreg+status,2+status,0+pclath+cstack]
   534                           
   535                           
   536                           ;lab11_slave_u2-20168.c: 79:     setup();
   537  07E4  120A  158A  2562  120A  118A  	fcall	_setup
   538  07E9                     l57:	
   539                           ;lab11_slave_u2-20168.c: 81:     while(1){
   540                           
   541  07E9                     l58:	
   542                           ;lab11_slave_u2-20168.c: 83:     }
   543                           
   544  07E9  2FE9               	goto	l57
   545  07EA  120A  118A  2810   	ljmp	start
   546  07ED                     __end_of_main:
   547                           
   548                           	psect	text1
   549  0D62                     __ptext1:	
   550 ;; *************** function _setup *****************
   551 ;; Defined at:
   552 ;;		line 88 in file "lab11_slave_u2-20168.c"
   553 ;; Parameters:    Size  Location     Type
   554 ;;		None
   555 ;; Auto vars:     Size  Location     Type
   556 ;;		None
   557 ;; Return value:  Size  Location     Type
   558 ;;                  1    wreg      void 
   559 ;; Registers used:
   560 ;;		wreg, status,2, status,0
   561 ;; Tracked objects:
   562 ;;		On entry : 0/0
   563 ;;		On exit  : 0/0
   564 ;;		Unchanged: 0/0
   565 ;; Data sizes:     COMMON   BANK0   BANK1   BANK3   BANK2
   566 ;;      Params:         0       0       0       0       0
   567 ;;      Locals:         0       0       0       0       0
   568 ;;      Temps:          0       0       0       0       0
   569 ;;      Totals:         0       0       0       0       0
   570 ;;Total ram usage:        0 bytes
   571 ;; Hardware stack levels used: 1
   572 ;; Hardware stack levels required when called: 4
   573 ;; This function calls:
   574 ;;		Nothing
   575 ;; This function is called by:
   576 ;;		_main
   577 ;; This function uses a non-reentrant model
   578 ;;
   579                           
   580  0D62                     _setup:	
   581                           ;psect for function _setup
   582                           
   583  0D62                     l1865:	
   584                           ;incstack = 0
   585                           ; Regs used in _setup: [wreg+status,2+status,0]
   586                           
   587                           
   588                           ;lab11_slave_u2-20168.c: 89:     ANSEL = 0;
   589  0D62  1683               	bsf	3,5	;RP0=1, select bank3
   590  0D63  1703               	bsf	3,6	;RP1=1, select bank3
   591  0D64  0188               	clrf	8	;volatile
   592                           
   593                           ;lab11_slave_u2-20168.c: 90:     ANSELH = 0;
   594  0D65  0189               	clrf	9	;volatile
   595  0D66                     l1867:
   596                           
   597                           ;lab11_slave_u2-20168.c: 92:     TRISA = 0b00100000;
   598  0D66  3020               	movlw	32
   599  0D67  1683               	bsf	3,5	;RP0=1, select bank1
   600  0D68  1303               	bcf	3,6	;RP1=0, select bank1
   601  0D69  0085               	movwf	5	;volatile
   602  0D6A                     l1869:
   603                           
   604                           ;lab11_slave_u2-20168.c: 93:     PORTA = 0;
   605  0D6A  1283               	bcf	3,5	;RP0=0, select bank0
   606  0D6B  1303               	bcf	3,6	;RP1=0, select bank0
   607  0D6C  0185               	clrf	5	;volatile
   608  0D6D                     l1871:
   609                           
   610                           ;lab11_slave_u2-20168.c: 96:     OSCCONbits.IRCF = 0b0100;
   611  0D6D  1683               	bsf	3,5	;RP0=1, select bank1
   612  0D6E  1303               	bcf	3,6	;RP1=0, select bank1
   613  0D6F  080F               	movf	15,w	;volatile
   614  0D70  398F               	andlw	-113
   615  0D71  3840               	iorlw	64
   616  0D72  008F               	movwf	15	;volatile
   617  0D73                     l1873:
   618                           
   619                           ;lab11_slave_u2-20168.c: 97:     OSCCONbits.SCS = 1;
   620  0D73  140F               	bsf	15,0	;volatile
   621  0D74                     l1875:
   622                           
   623                           ;lab11_slave_u2-20168.c: 101:     TRISC = 0b00011000;
   624  0D74  3018               	movlw	24
   625  0D75  0087               	movwf	7	;volatile
   626  0D76                     l1877:
   627                           
   628                           ;lab11_slave_u2-20168.c: 102:     PORTC = 0;
   629  0D76  1283               	bcf	3,5	;RP0=0, select bank0
   630  0D77  1303               	bcf	3,6	;RP1=0, select bank0
   631  0D78  0187               	clrf	7	;volatile
   632  0D79                     l1879:
   633                           
   634                           ;lab11_slave_u2-20168.c: 105:     SSPCONbits.SSPM = 0b0100;
   635  0D79  0814               	movf	20,w	;volatile
   636  0D7A  39F0               	andlw	-16
   637  0D7B  3804               	iorlw	4
   638  0D7C  0094               	movwf	20	;volatile
   639  0D7D                     l1881:
   640                           
   641                           ;lab11_slave_u2-20168.c: 106:     SSPCONbits.CKP = 0;
   642  0D7D  1214               	bcf	20,4	;volatile
   643  0D7E                     l1883:
   644                           
   645                           ;lab11_slave_u2-20168.c: 107:     SSPCONbits.SSPEN = 1;
   646  0D7E  1694               	bsf	20,5	;volatile
   647  0D7F                     l1885:
   648                           
   649                           ;lab11_slave_u2-20168.c: 109:     SSPSTATbits.CKE = 1;
   650  0D7F  1683               	bsf	3,5	;RP0=1, select bank1
   651  0D80  1303               	bcf	3,6	;RP1=0, select bank1
   652  0D81  1714               	bsf	20,6	;volatile
   653  0D82                     l1887:
   654                           
   655                           ;lab11_slave_u2-20168.c: 110:     SSPSTATbits.SMP = 0;
   656  0D82  1394               	bcf	20,7	;volatile
   657  0D83                     l1889:
   658                           
   659                           ;lab11_slave_u2-20168.c: 113:     TRISCbits.TRISC2 = 1;
   660  0D83  1507               	bsf	7,2	;volatile
   661  0D84                     l1891:
   662                           
   663                           ;lab11_slave_u2-20168.c: 114:     PR2 = 255;
   664  0D84  30FF               	movlw	255
   665  0D85  0092               	movwf	18	;volatile
   666  0D86                     l1893:
   667                           
   668                           ;lab11_slave_u2-20168.c: 117:     CCP1CON = 0;
   669  0D86  1283               	bcf	3,5	;RP0=0, select bank0
   670  0D87  1303               	bcf	3,6	;RP1=0, select bank0
   671  0D88  0197               	clrf	23	;volatile
   672  0D89                     l1895:
   673                           
   674                           ;lab11_slave_u2-20168.c: 118:     CCP1CONbits.P1M = 0;
   675  0D89  303F               	movlw	-193
   676  0D8A  0597               	andwf	23,f	;volatile
   677  0D8B                     l1897:
   678                           
   679                           ;lab11_slave_u2-20168.c: 119:     CCP1CONbits.CCP1M = 0b1100;
   680  0D8B  0817               	movf	23,w	;volatile
   681  0D8C  39F0               	andlw	-16
   682  0D8D  380C               	iorlw	12
   683  0D8E  0097               	movwf	23	;volatile
   684                           
   685                           ;lab11_slave_u2-20168.c: 121:     CCPR1L = 61;
   686  0D8F  303D               	movlw	61
   687  0D90  0095               	movwf	21	;volatile
   688  0D91                     l1899:
   689                           
   690                           ;lab11_slave_u2-20168.c: 122:     CCP1CONbits.DC1B = 61 & 0b11;
   691  0D91  0817               	movf	23,w	;volatile
   692  0D92  39CF               	andlw	-49
   693  0D93  3810               	iorlw	16
   694  0D94  0097               	movwf	23	;volatile
   695  0D95                     l1901:
   696                           
   697                           ;lab11_slave_u2-20168.c: 124:     T2CONbits.T2CKPS = 0b11;
   698  0D95  3003               	movlw	3
   699  0D96  0492               	iorwf	18,f	;volatile
   700  0D97                     l1903:
   701                           
   702                           ;lab11_slave_u2-20168.c: 125:     PIR1bits.TMR2IF = 0;
   703  0D97  108C               	bcf	12,1	;volatile
   704  0D98                     l1905:
   705                           
   706                           ;lab11_slave_u2-20168.c: 126:     T2CONbits.TMR2ON = 1;
   707  0D98  1512               	bsf	18,2	;volatile
   708  0D99                     l63:	
   709                           ;lab11_slave_u2-20168.c: 127:     while(!PIR1bits.TMR2IF);
   710                           
   711  0D99  1C8C               	btfss	12,1	;volatile
   712  0D9A  2D9C               	goto	u2811
   713  0D9B  2D9D               	goto	u2810
   714  0D9C                     u2811:
   715  0D9C  2D99               	goto	l63
   716  0D9D                     u2810:
   717  0D9D                     l65:
   718                           
   719                           ;lab11_slave_u2-20168.c: 128:     PIR1bits.TMR2IF = 0;
   720  0D9D  108C               	bcf	12,1	;volatile
   721                           
   722                           ;lab11_slave_u2-20168.c: 130:     TRISCbits.TRISC2 = 0;
   723  0D9E  1683               	bsf	3,5	;RP0=1, select bank1
   724  0D9F  1303               	bcf	3,6	;RP1=0, select bank1
   725  0DA0  1107               	bcf	7,2	;volatile
   726                           
   727                           ;lab11_slave_u2-20168.c: 133:     PIR1bits.SSPIF = 0;
   728  0DA1  1283               	bcf	3,5	;RP0=0, select bank0
   729  0DA2  1303               	bcf	3,6	;RP1=0, select bank0
   730  0DA3  118C               	bcf	12,3	;volatile
   731                           
   732                           ;lab11_slave_u2-20168.c: 134:     PIE1bits.SSPIE = 1;
   733  0DA4  1683               	bsf	3,5	;RP0=1, select bank1
   734  0DA5  1303               	bcf	3,6	;RP1=0, select bank1
   735  0DA6  158C               	bsf	12,3	;volatile
   736                           
   737                           ;lab11_slave_u2-20168.c: 135:     INTCONbits.GIE = 1;
   738  0DA7  178B               	bsf	11,7	;volatile
   739                           
   740                           ;lab11_slave_u2-20168.c: 136:     INTCONbits.PEIE = 1;
   741  0DA8  170B               	bsf	11,6	;volatile
   742  0DA9                     l66:
   743  0DA9  0008               	return
   744  0DAA                     __end_of_setup:
   745                           
   746                           	psect	text2
   747  0DAA                     __ptext2:	
   748 ;; *************** function _isr *****************
   749 ;; Defined at:
   750 ;;		line 63 in file "lab11_slave_u2-20168.c"
   751 ;; Parameters:    Size  Location     Type
   752 ;;		None
   753 ;; Auto vars:     Size  Location     Type
   754 ;;		None
   755 ;; Return value:  Size  Location     Type
   756 ;;                  1    wreg      void 
   757 ;; Registers used:
   758 ;;		wreg, status,2, status,0, btemp+1, pclath, cstack
   759 ;; Tracked objects:
   760 ;;		On entry : 0/0
   761 ;;		On exit  : 0/0
   762 ;;		Unchanged: 0/0
   763 ;; Data sizes:     COMMON   BANK0   BANK1   BANK3   BANK2
   764 ;;      Params:         0       0       0       0       0
   765 ;;      Locals:         0       0       0       0       0
   766 ;;      Temps:          0       0       5       0       0
   767 ;;      Totals:         0       0       5       0       0
   768 ;;Total ram usage:        5 bytes
   769 ;; Hardware stack levels used: 1
   770 ;; Hardware stack levels required when called: 3
   771 ;; This function calls:
   772 ;;		_interpol
   773 ;; This function is called by:
   774 ;;		Interrupt level 1
   775 ;; This function uses a non-reentrant model
   776 ;;
   777                           
   778  0DAA                     _isr:	
   779                           ;psect for function _isr
   780                           
   781  0DAA                     i1l1907:
   782                           
   783                           ;lab11_slave_u2-20168.c: 65:     if (PIR1bits.SSPIF){
   784  0DAA  1283               	bcf	3,5	;RP0=0, select bank0
   785  0DAB  1303               	bcf	3,6	;RP1=0, select bank0
   786  0DAC  1D8C               	btfss	12,3	;volatile
   787  0DAD  2DAF               	goto	u282_21
   788  0DAE  2DB0               	goto	u282_20
   789  0DAF                     u282_21:
   790  0DAF  2DED               	goto	i1l52
   791  0DB0                     u282_20:
   792  0DB0                     i1l1909:
   793                           
   794                           ;lab11_slave_u2-20168.c: 66:         CCPR = interpol(SSPBUF, 0, 255, 62, 125);
   795  0DB0  1683               	bsf	3,5	;RP0=1, select bank1
   796  0DB1  1303               	bcf	3,6	;RP1=0, select bank1
   797  0DB2  01A5               	clrf	interpol@pot_min^(0+128)
   798  0DB3  30FF               	movlw	255
   799  0DB4  00AB               	movwf	??_isr^(0+128)
   800  0DB5  082B               	movf	??_isr^(0+128),w
   801  0DB6  00A6               	movwf	interpol@pot_max^(0+128)
   802  0DB7  303E               	movlw	62
   803  0DB8  00A7               	movwf	interpol@pwm_min^(0+128)
   804  0DB9  3000               	movlw	0
   805  0DBA  00A8               	movwf	(interpol@pwm_min^(0+128)+1)
   806  0DBB  307D               	movlw	125
   807  0DBC  00A9               	movwf	interpol@pwm_max^(0+128)
   808  0DBD  3000               	movlw	0
   809  0DBE  00AA               	movwf	(interpol@pwm_max^(0+128)+1)
   810  0DBF  1283               	bcf	3,5	;RP0=0, select bank0
   811  0DC0  1303               	bcf	3,6	;RP1=0, select bank0
   812  0DC1  0813               	movf	19,w	;volatile
   813  0DC2  120A  158A  2694  120A  158A  	fcall	_interpol
   814  0DC7  1683               	bsf	3,5	;RP0=1, select bank1
   815  0DC8  1303               	bcf	3,6	;RP1=0, select bank1
   816  0DC9  0826               	movf	(?_interpol+1)^(0+128),w
   817  0DCA  00B1               	movwf	(_CCPR+1)^(0+128)
   818  0DCB  0825               	movf	?_interpol^(0+128),w
   819  0DCC  00B0               	movwf	_CCPR^(0+128)
   820  0DCD                     i1l1911:
   821                           
   822                           ;lab11_slave_u2-20168.c: 67:         CCPR1L = (uint8_t)(CCPR>>2);
   823  0DCD  0831               	movf	(_CCPR+1)^(0+128),w
   824  0DCE  00AC               	movwf	(??_isr^(0+128)+1)
   825  0DCF  0830               	movf	_CCPR^(0+128),w
   826  0DD0  00AB               	movwf	??_isr^(0+128)
   827  0DD1  1003               	clrc
   828  0DD2  0CAC               	rrf	(??_isr^(0+128)+1),f
   829  0DD3  0CAB               	rrf	??_isr^(0+128),f
   830  0DD4  1003               	clrc
   831  0DD5  0CAC               	rrf	(??_isr^(0+128)+1),f
   832  0DD6  0CAB               	rrf	??_isr^(0+128),f
   833  0DD7  082B               	movf	??_isr^(0+128),w
   834  0DD8  1283               	bcf	3,5	;RP0=0, select bank0
   835  0DD9  1303               	bcf	3,6	;RP1=0, select bank0
   836  0DDA  0095               	movwf	21	;volatile
   837  0DDB                     i1l1913:
   838                           
   839                           ;lab11_slave_u2-20168.c: 68:         CCP1CONbits.DC1B = CCPR & 0b11;
   840  0DDB  1683               	bsf	3,5	;RP0=1, select bank1
   841  0DDC  1303               	bcf	3,6	;RP1=0, select bank1
   842  0DDD  0830               	movf	_CCPR^(0+128),w
   843  0DDE  3903               	andlw	3
   844  0DDF  00AB               	movwf	??_isr^(0+128)
   845  0DE0  0EAB               	swapf	??_isr^(0+128),f
   846  0DE1  1283               	bcf	3,5	;RP0=0, select bank0
   847  0DE2  1303               	bcf	3,6	;RP1=0, select bank0
   848  0DE3  0817               	movf	23,w	;volatile
   849  0DE4  1683               	bsf	3,5	;RP0=1, select bank1
   850  0DE5  1303               	bcf	3,6	;RP1=0, select bank1
   851  0DE6  062B               	xorwf	??_isr^(0+128),w
   852  0DE7  39CF               	andlw	-49
   853  0DE8  062B               	xorwf	??_isr^(0+128),w
   854  0DE9  1283               	bcf	3,5	;RP0=0, select bank0
   855  0DEA  1303               	bcf	3,6	;RP1=0, select bank0
   856  0DEB  0097               	movwf	23	;volatile
   857  0DEC                     i1l1915:
   858                           
   859                           ;lab11_slave_u2-20168.c: 70:         PIR1bits.SSPIF = 0;
   860  0DEC  118C               	bcf	12,3	;volatile
   861  0DED                     i1l52:
   862  0DED  1683               	bsf	3,5	;RP0=1, select bank1
   863  0DEE  1303               	bcf	3,6	;RP1=0, select bank1
   864  0DEF  082F               	movf	(??_isr+4)^(0+128),w
   865  0DF0  00FF               	movwf	btemp+1
   866  0DF1  082E               	movf	(??_isr+3)^(0+128),w
   867  0DF2  008A               	movwf	10
   868  0DF3  0E2D               	swapf	(??_isr+2)^(0+128),w
   869  0DF4  0083               	movwf	3
   870  0DF5  0EFE               	swapf	btemp,f
   871  0DF6  0E7E               	swapf	btemp,w
   872  0DF7  0009               	retfie
   873  0DF8                     __end_of_isr:
   874                           
   875                           	psect	intentry
   876  0004                     __pintentry:	
   877                           ;incstack = 0
   878                           ; Regs used in _isr: [wreg+status,2+status,0+btemp+1+pclath+cstack]
   879                           
   880  0004                     interrupt_function:
   881  007E                     saved_w	set	btemp
   882  0004  00FE               	movwf	btemp
   883  0005  0E03               	swapf	3,w
   884  0006  1683               	bsf	3,5	;RP0=1, select bank1
   885  0007  1303               	bcf	3,6	;RP1=0, select bank1
   886  0008  00AD               	movwf	(??_isr+2)^(0+128)
   887  0009  080A               	movf	10,w
   888  000A  00AE               	movwf	(??_isr+3)^(0+128)
   889  000B  087F               	movf	btemp+1,w
   890  000C  00AF               	movwf	(??_isr+4)^(0+128)
   891  000D  120A  158A  2DAA   	ljmp	_isr
   892                           
   893                           	psect	text3
   894  0E94                     __ptext3:	
   895 ;; *************** function _interpol *****************
   896 ;; Defined at:
   897 ;;		line 140 in file "lab11_slave_u2-20168.c"
   898 ;; Parameters:    Size  Location     Type
   899 ;;  val             1    wreg     unsigned char 
   900 ;;  pot_min         1    5[BANK1 ] unsigned char 
   901 ;;  pot_max         1    6[BANK1 ] unsigned char 
   902 ;;  pwm_min         2    7[BANK1 ] unsigned short 
   903 ;;  pwm_max         2    9[BANK1 ] unsigned short 
   904 ;; Auto vars:     Size  Location     Type
   905 ;;  val             1   78[BANK0 ] unsigned char 
   906 ;; Return value:  Size  Location     Type
   907 ;;                  2    5[BANK1 ] unsigned short 
   908 ;; Registers used:
   909 ;;		wreg, status,2, status,0, btemp+1, pclath, cstack
   910 ;; Tracked objects:
   911 ;;		On entry : 0/0
   912 ;;		On exit  : 0/0
   913 ;;		Unchanged: 0/0
   914 ;; Data sizes:     COMMON   BANK0   BANK1   BANK3   BANK2
   915 ;;      Params:         0       0       6       0       0
   916 ;;      Locals:         0       1       0       0       0
   917 ;;      Temps:          0       0       0       0       0
   918 ;;      Totals:         0       1       6       0       0
   919 ;;Total ram usage:        7 bytes
   920 ;; Hardware stack levels used: 1
   921 ;; Hardware stack levels required when called: 2
   922 ;; This function calls:
   923 ;;		___fladd
   924 ;;		___fldiv
   925 ;;		___flmul
   926 ;;		___fltol
   927 ;;		___xxtofl
   928 ;; This function is called by:
   929 ;;		_isr
   930 ;; This function uses a non-reentrant model
   931 ;;
   932                           
   933  0E94                     _interpol:	
   934                           ;psect for function _interpol
   935                           
   936                           
   937                           ;incstack = 0
   938                           ; Regs used in _interpol: [wreg+status,2+status,0+btemp+1+pclath+cstack]
   939                           ;interpol@val stored from wreg
   940  0E94  1283               	bcf	3,5	;RP0=0, select bank0
   941  0E95  1303               	bcf	3,6	;RP1=0, select bank0
   942  0E96  00EE               	movwf	interpol@val
   943  0E97                     i1l1861:
   944                           
   945                           ;lab11_slave_u2-20168.c: 140: unsigned short interpol(uint8_t val, uint8_t pot_min, uint
      +                          8_t pot_max,;lab11_slave_u2-20168.c: 141:         unsigned short pwm_min, unsigned short
      +                           pwm_max){;lab11_slave_u2-20168.c: 143:     return (unsigned short)(pwm_min+((float)(pwm
      +                          _max-pwm_min)/(pot_max-pot_min))
   946  0E97  1683               	bsf	3,5	;RP0=1, select bank1
   947  0E98  1303               	bcf	3,6	;RP1=0, select bank1
   948  0E99  0827               	movf	interpol@pwm_min^(0+128),w
   949  0E9A  00F0               	movwf	___xxtofl@val
   950  0E9B  0828               	movf	(interpol@pwm_min+1)^(0+128),w
   951  0E9C  00F1               	movwf	___xxtofl@val+1
   952  0E9D  01F2               	clrf	___xxtofl@val+2
   953  0E9E  01F3               	clrf	___xxtofl@val+3
   954  0E9F  3000               	movlw	0
   955  0EA0  120A  158A  2746  120A  158A  	fcall	___xxtofl
   956  0EA5  0873               	movf	?___xxtofl+3,w
   957  0EA6  1283               	bcf	3,5	;RP0=0, select bank0
   958  0EA7  1303               	bcf	3,6	;RP1=0, select bank0
   959  0EA8  00DB               	movwf	___fladd@a+3
   960  0EA9  0872               	movf	?___xxtofl+2,w
   961  0EAA  00DA               	movwf	___fladd@a+2
   962  0EAB  0871               	movf	?___xxtofl+1,w
   963  0EAC  00D9               	movwf	___fladd@a+1
   964  0EAD  0870               	movf	?___xxtofl,w
   965  0EAE  00D8               	movwf	___fladd@a
   966  0EAF  1683               	bsf	3,5	;RP0=1, select bank1
   967  0EB0  1303               	bcf	3,6	;RP1=0, select bank1
   968  0EB1  0827               	movf	interpol@pwm_min^(0+128),w
   969  0EB2  0229               	subwf	interpol@pwm_max^(0+128),w
   970  0EB3  00F0               	movwf	___xxtofl@val
   971  0EB4  0828               	movf	(interpol@pwm_min+1)^(0+128),w
   972  0EB5  1C03               	skipc
   973  0EB6  0A28               	incf	(interpol@pwm_min+1)^(0+128),w
   974  0EB7  022A               	subwf	(interpol@pwm_max+1)^(0+128),w
   975  0EB8  00F1               	movwf	___xxtofl@val+1
   976  0EB9  01F2               	clrf	___xxtofl@val+2
   977  0EBA  01F3               	clrf	___xxtofl@val+3
   978  0EBB  3000               	movlw	0
   979  0EBC  120A  158A  2746  120A  158A  	fcall	___xxtofl
   980  0EC1  0873               	movf	?___xxtofl+3,w
   981  0EC2  1283               	bcf	3,5	;RP0=0, select bank0
   982  0EC3  1303               	bcf	3,6	;RP1=0, select bank0
   983  0EC4  00A7               	movwf	___fldiv@b+3
   984  0EC5  0872               	movf	?___xxtofl+2,w
   985  0EC6  00A6               	movwf	___fldiv@b+2
   986  0EC7  0871               	movf	?___xxtofl+1,w
   987  0EC8  00A5               	movwf	___fldiv@b+1
   988  0EC9  0870               	movf	?___xxtofl,w
   989  0ECA  00A4               	movwf	___fldiv@b
   990  0ECB  1683               	bsf	3,5	;RP0=1, select bank1
   991  0ECC  1303               	bcf	3,6	;RP1=0, select bank1
   992  0ECD  0825               	movf	interpol@pot_min^(0+128),w
   993  0ECE  0226               	subwf	interpol@pot_max^(0+128),w
   994  0ECF  00F0               	movwf	___xxtofl@val
   995  0ED0  01F1               	clrf	___xxtofl@val+1
   996  0ED1  1C03               	skipc
   997  0ED2  03F1               	decf	___xxtofl@val+1,f
   998  0ED3  01F2               	clrf	___xxtofl@val+2
   999  0ED4  1BF1               	btfsc	___xxtofl@val+1,7
  1000  0ED5  03F2               	decf	___xxtofl@val+2,f
  1001  0ED6  0872               	movf	___xxtofl@val+2,w
  1002  0ED7  00F3               	movwf	___xxtofl@val+3
  1003  0ED8  3001               	movlw	1
  1004  0ED9  120A  158A  2746  120A  158A  	fcall	___xxtofl
  1005  0EDE  0873               	movf	?___xxtofl+3,w
  1006  0EDF  1283               	bcf	3,5	;RP0=0, select bank0
  1007  0EE0  1303               	bcf	3,6	;RP1=0, select bank0
  1008  0EE1  00A3               	movwf	___fldiv@a+3
  1009  0EE2  0872               	movf	?___xxtofl+2,w
  1010  0EE3  00A2               	movwf	___fldiv@a+2
  1011  0EE4  0871               	movf	?___xxtofl+1,w
  1012  0EE5  00A1               	movwf	___fldiv@a+1
  1013  0EE6  0870               	movf	?___xxtofl,w
  1014  0EE7  00A0               	movwf	___fldiv@a
  1015  0EE8  120A  118A  2607  120A  158A  	fcall	___fldiv
  1016  0EED  1283               	bcf	3,5	;RP0=0, select bank0
  1017  0EEE  1303               	bcf	3,6	;RP1=0, select bank0
  1018  0EEF  0823               	movf	?___fldiv+3,w
  1019  0EF0  00C1               	movwf	___flmul@a+3
  1020  0EF1  0822               	movf	?___fldiv+2,w
  1021  0EF2  00C0               	movwf	___flmul@a+2
  1022  0EF3  0821               	movf	?___fldiv+1,w
  1023  0EF4  00BF               	movwf	___flmul@a+1
  1024  0EF5  0820               	movf	?___fldiv,w
  1025  0EF6  00BE               	movwf	___flmul@a
  1026  0EF7  1683               	bsf	3,5	;RP0=1, select bank1
  1027  0EF8  1303               	bcf	3,6	;RP1=0, select bank1
  1028  0EF9  0825               	movf	interpol@pot_min^(0+128),w
  1029  0EFA  1283               	bcf	3,5	;RP0=0, select bank0
  1030  0EFB  1303               	bcf	3,6	;RP1=0, select bank0
  1031  0EFC  026E               	subwf	interpol@val,w
  1032  0EFD  00F0               	movwf	___xxtofl@val
  1033  0EFE  01F1               	clrf	___xxtofl@val+1
  1034  0EFF  1C03               	skipc
  1035  0F00  03F1               	decf	___xxtofl@val+1,f
  1036  0F01  01F2               	clrf	___xxtofl@val+2
  1037  0F02  1BF1               	btfsc	___xxtofl@val+1,7
  1038  0F03  03F2               	decf	___xxtofl@val+2,f
  1039  0F04  0872               	movf	___xxtofl@val+2,w
  1040  0F05  00F3               	movwf	___xxtofl@val+3
  1041  0F06  3001               	movlw	1
  1042  0F07  120A  158A  2746  120A  158A  	fcall	___xxtofl
  1043  0F0C  0873               	movf	?___xxtofl+3,w
  1044  0F0D  1283               	bcf	3,5	;RP0=0, select bank0
  1045  0F0E  1303               	bcf	3,6	;RP1=0, select bank0
  1046  0F0F  00BD               	movwf	___flmul@b+3
  1047  0F10  0872               	movf	?___xxtofl+2,w
  1048  0F11  00BC               	movwf	___flmul@b+2
  1049  0F12  0871               	movf	?___xxtofl+1,w
  1050  0F13  00BB               	movwf	___flmul@b+1
  1051  0F14  0870               	movf	?___xxtofl,w
  1052  0F15  00BA               	movwf	___flmul@b
  1053  0F16  120A  118A  201E  120A  158A  	fcall	___flmul
  1054  0F1B  1283               	bcf	3,5	;RP0=0, select bank0
  1055  0F1C  1303               	bcf	3,6	;RP1=0, select bank0
  1056  0F1D  083D               	movf	?___flmul+3,w
  1057  0F1E  00D7               	movwf	___fladd@b+3
  1058  0F1F  083C               	movf	?___flmul+2,w
  1059  0F20  00D6               	movwf	___fladd@b+2
  1060  0F21  083B               	movf	?___flmul+1,w
  1061  0F22  00D5               	movwf	___fladd@b+1
  1062  0F23  083A               	movf	?___flmul,w
  1063  0F24  00D4               	movwf	___fladd@b
  1064  0F25  120A  118A  237F  120A  158A  	fcall	___fladd
  1065  0F2A  1283               	bcf	3,5	;RP0=0, select bank0
  1066  0F2B  1303               	bcf	3,6	;RP1=0, select bank0
  1067  0F2C  0857               	movf	?___fladd+3,w
  1068  0F2D  00EB               	movwf	___fltol@f1+3
  1069  0F2E  0856               	movf	?___fladd+2,w
  1070  0F2F  00EA               	movwf	___fltol@f1+2
  1071  0F30  0855               	movf	?___fladd+1,w
  1072  0F31  00E9               	movwf	___fltol@f1+1
  1073  0F32  0854               	movf	?___fladd,w
  1074  0F33  00E8               	movwf	___fltol@f1
  1075  0F34  120A  158A  25F8  120A  158A  	fcall	___fltol
  1076  0F39  1283               	bcf	3,5	;RP0=0, select bank0
  1077  0F3A  1303               	bcf	3,6	;RP1=0, select bank0
  1078  0F3B  0869               	movf	?___fltol+1,w
  1079  0F3C  1683               	bsf	3,5	;RP0=1, select bank1
  1080  0F3D  1303               	bcf	3,6	;RP1=0, select bank1
  1081  0F3E  00A6               	movwf	(?_interpol+1)^(0+128)
  1082  0F3F  1283               	bcf	3,5	;RP0=0, select bank0
  1083  0F40  1303               	bcf	3,6	;RP1=0, select bank0
  1084  0F41  0868               	movf	?___fltol,w
  1085  0F42  1683               	bsf	3,5	;RP0=1, select bank1
  1086  0F43  1303               	bcf	3,6	;RP1=0, select bank1
  1087  0F44  00A5               	movwf	?_interpol^(0+128)
  1088  0F45                     i1l69:
  1089  0F45  0008               	return
  1090  0F46                     __end_of_interpol:
  1091                           
  1092                           	psect	text4
  1093  0F46                     __ptext4:	
  1094 ;; *************** function ___xxtofl *****************
  1095 ;; Defined at:
  1096 ;;		line 10 in file "C:\Program Files\Microchip\xc8\v2.35\pic\sources\c90\common\xxtofl.c"
  1097 ;; Parameters:    Size  Location     Type
  1098 ;;  sign            1    wreg     unsigned char 
  1099 ;;  val             4    0[COMMON] long 
  1100 ;; Auto vars:     Size  Location     Type
  1101 ;;  sign            1    8[COMMON] unsigned char 
  1102 ;;  arg             4   10[COMMON] unsigned long 
  1103 ;;  exp             1    9[COMMON] unsigned char 
  1104 ;; Return value:  Size  Location     Type
  1105 ;;                  4    0[COMMON] unsigned char 
  1106 ;; Registers used:
  1107 ;;		wreg, status,2, status,0
  1108 ;; Tracked objects:
  1109 ;;		On entry : 0/0
  1110 ;;		On exit  : 0/0
  1111 ;;		Unchanged: 0/0
  1112 ;; Data sizes:     COMMON   BANK0   BANK1   BANK3   BANK2
  1113 ;;      Params:         4       0       0       0       0
  1114 ;;      Locals:         6       0       0       0       0
  1115 ;;      Temps:          4       0       0       0       0
  1116 ;;      Totals:        14       0       0       0       0
  1117 ;;Total ram usage:       14 bytes
  1118 ;; Hardware stack levels used: 1
  1119 ;; This function calls:
  1120 ;;		Nothing
  1121 ;; This function is called by:
  1122 ;;		_interpol
  1123 ;; This function uses a non-reentrant model
  1124 ;;
  1125                           
  1126  0F46                     ___xxtofl:	
  1127                           ;psect for function ___xxtofl
  1128                           
  1129                           
  1130                           ;incstack = 0
  1131                           ; Regs used in ___xxtofl: [wreg+status,2+status,0]
  1132                           ;___xxtofl@sign stored from wreg
  1133  0F46  00F8               	movwf	___xxtofl@sign
  1134  0F47                     i1l1817:
  1135  0F47  0878               	movf	___xxtofl@sign,w
  1136  0F48  1903               	btfsc	3,2
  1137  0F49  2F4B               	goto	u267_21
  1138  0F4A  2F4C               	goto	u267_20
  1139  0F4B                     u267_21:
  1140  0F4B  2F60               	goto	i1l1823
  1141  0F4C                     u267_20:
  1142  0F4C                     i1l1819:
  1143  0F4C  1FF3               	btfss	___xxtofl@val+3,7
  1144  0F4D  2F4F               	goto	u268_21
  1145  0F4E  2F50               	goto	u268_20
  1146  0F4F                     u268_21:
  1147  0F4F  2F60               	goto	i1l1823
  1148  0F50                     u268_20:
  1149  0F50                     i1l1821:
  1150  0F50  0970               	comf	___xxtofl@val,w
  1151  0F51  00FA               	movwf	___xxtofl@arg
  1152  0F52  0971               	comf	___xxtofl@val+1,w
  1153  0F53  00FB               	movwf	___xxtofl@arg+1
  1154  0F54  0972               	comf	___xxtofl@val+2,w
  1155  0F55  00FC               	movwf	___xxtofl@arg+2
  1156  0F56  0973               	comf	___xxtofl@val+3,w
  1157  0F57  00FD               	movwf	___xxtofl@arg+3
  1158  0F58  0AFA               	incf	___xxtofl@arg,f
  1159  0F59  1903               	skipnz
  1160  0F5A  0AFB               	incf	___xxtofl@arg+1,f
  1161  0F5B  1903               	skipnz
  1162  0F5C  0AFC               	incf	___xxtofl@arg+2,f
  1163  0F5D  1903               	skipnz
  1164  0F5E  0AFD               	incf	___xxtofl@arg+3,f
  1165  0F5F  2F68               	goto	i1l588
  1166  0F60                     i1l1823:
  1167  0F60  0873               	movf	___xxtofl@val+3,w
  1168  0F61  00FD               	movwf	___xxtofl@arg+3
  1169  0F62  0872               	movf	___xxtofl@val+2,w
  1170  0F63  00FC               	movwf	___xxtofl@arg+2
  1171  0F64  0871               	movf	___xxtofl@val+1,w
  1172  0F65  00FB               	movwf	___xxtofl@arg+1
  1173  0F66  0870               	movf	___xxtofl@val,w
  1174  0F67  00FA               	movwf	___xxtofl@arg
  1175  0F68                     i1l588:
  1176  0F68  0873               	movf	___xxtofl@val+3,w
  1177  0F69  0472               	iorwf	___xxtofl@val+2,w
  1178  0F6A  0471               	iorwf	___xxtofl@val+1,w
  1179  0F6B  0470               	iorwf	___xxtofl@val,w
  1180  0F6C  1D03               	skipz
  1181  0F6D  2F6F               	goto	u269_21
  1182  0F6E  2F70               	goto	u269_20
  1183  0F6F                     u269_21:
  1184  0F6F  2F79               	goto	i1l1829
  1185  0F70                     u269_20:
  1186  0F70                     i1l1825:
  1187  0F70  3000               	movlw	0
  1188  0F71  00F3               	movwf	?___xxtofl+3
  1189  0F72  3000               	movlw	0
  1190  0F73  00F2               	movwf	?___xxtofl+2
  1191  0F74  3000               	movlw	0
  1192  0F75  00F1               	movwf	?___xxtofl+1
  1193  0F76  3000               	movlw	0
  1194  0F77  00F0               	movwf	?___xxtofl
  1195  0F78  2FFF               	goto	i1l590
  1196  0F79                     i1l1829:
  1197  0F79  3096               	movlw	150
  1198  0F7A  00F4               	movwf	??___xxtofl
  1199  0F7B  0874               	movf	??___xxtofl,w
  1200  0F7C  00F9               	movwf	___xxtofl@exp
  1201  0F7D  2F8B               	goto	i1l1833
  1202  0F7E                     i1l1831:
  1203  0F7E  3001               	movlw	1
  1204  0F7F  00F4               	movwf	??___xxtofl
  1205  0F80  0874               	movf	??___xxtofl,w
  1206  0F81  07F9               	addwf	___xxtofl@exp,f
  1207  0F82  3001               	movlw	1
  1208  0F83                     u270_25:
  1209  0F83  1003               	clrc
  1210  0F84  0CFD               	rrf	___xxtofl@arg+3,f
  1211  0F85  0CFC               	rrf	___xxtofl@arg+2,f
  1212  0F86  0CFB               	rrf	___xxtofl@arg+1,f
  1213  0F87  0CFA               	rrf	___xxtofl@arg,f
  1214  0F88  3EFF               	addlw	-1
  1215  0F89  1D03               	skipz
  1216  0F8A  2F83               	goto	u270_25
  1217  0F8B                     i1l1833:
  1218  0F8B  30FE               	movlw	254
  1219  0F8C  057D               	andwf	___xxtofl@arg+3,w
  1220  0F8D  1D03               	btfss	3,2
  1221  0F8E  2F90               	goto	u271_21
  1222  0F8F  2F91               	goto	u271_20
  1223  0F90                     u271_21:
  1224  0F90  2F7E               	goto	i1l1831
  1225  0F91                     u271_20:
  1226  0F91  2FAD               	goto	i1l594
  1227  0F92                     i1l1835:
  1228  0F92  3001               	movlw	1
  1229  0F93  00F4               	movwf	??___xxtofl
  1230  0F94  0874               	movf	??___xxtofl,w
  1231  0F95  07F9               	addwf	___xxtofl@exp,f
  1232  0F96                     i1l1837:
  1233  0F96  3001               	movlw	1
  1234  0F97  07FA               	addwf	___xxtofl@arg,f
  1235  0F98  3000               	movlw	0
  1236  0F99  1803               	skipnc
  1237  0F9A  3001               	movlw	1
  1238  0F9B  07FB               	addwf	___xxtofl@arg+1,f
  1239  0F9C  3000               	movlw	0
  1240  0F9D  1803               	skipnc
  1241  0F9E  3001               	movlw	1
  1242  0F9F  07FC               	addwf	___xxtofl@arg+2,f
  1243  0FA0  3000               	movlw	0
  1244  0FA1  1803               	skipnc
  1245  0FA2  3001               	movlw	1
  1246  0FA3  07FD               	addwf	___xxtofl@arg+3,f
  1247  0FA4                     i1l1839:
  1248  0FA4  3001               	movlw	1
  1249  0FA5                     u272_25:
  1250  0FA5  1003               	clrc
  1251  0FA6  0CFD               	rrf	___xxtofl@arg+3,f
  1252  0FA7  0CFC               	rrf	___xxtofl@arg+2,f
  1253  0FA8  0CFB               	rrf	___xxtofl@arg+1,f
  1254  0FA9  0CFA               	rrf	___xxtofl@arg,f
  1255  0FAA  3EFF               	addlw	-1
  1256  0FAB  1D03               	skipz
  1257  0FAC  2FA5               	goto	u272_25
  1258  0FAD                     i1l594:
  1259  0FAD  30FF               	movlw	255
  1260  0FAE  057D               	andwf	___xxtofl@arg+3,w
  1261  0FAF  1D03               	btfss	3,2
  1262  0FB0  2FB2               	goto	u273_21
  1263  0FB1  2FB3               	goto	u273_20
  1264  0FB2                     u273_21:
  1265  0FB2  2F92               	goto	i1l1835
  1266  0FB3                     u273_20:
  1267  0FB3  2FBF               	goto	i1l1843
  1268  0FB4                     i1l1841:
  1269  0FB4  3001               	movlw	1
  1270  0FB5  02F9               	subwf	___xxtofl@exp,f
  1271  0FB6  3001               	movlw	1
  1272  0FB7  00F4               	movwf	??___xxtofl
  1273  0FB8                     u274_25:
  1274  0FB8  1003               	clrc
  1275  0FB9  0DFA               	rlf	___xxtofl@arg,f
  1276  0FBA  0DFB               	rlf	___xxtofl@arg+1,f
  1277  0FBB  0DFC               	rlf	___xxtofl@arg+2,f
  1278  0FBC  0DFD               	rlf	___xxtofl@arg+3,f
  1279  0FBD  0BF4               	decfsz	??___xxtofl,f
  1280  0FBE  2FB8               	goto	u274_25
  1281  0FBF                     i1l1843:
  1282  0FBF  1BFC               	btfsc	___xxtofl@arg+2,7
  1283  0FC0  2FC2               	goto	u275_21
  1284  0FC1  2FC3               	goto	u275_20
  1285  0FC2                     u275_21:
  1286  0FC2  2FC9               	goto	i1l601
  1287  0FC3                     u275_20:
  1288  0FC3                     i1l1845:
  1289  0FC3  3002               	movlw	2
  1290  0FC4  0279               	subwf	___xxtofl@exp,w
  1291  0FC5  1803               	skipnc
  1292  0FC6  2FC8               	goto	u276_21
  1293  0FC7  2FC9               	goto	u276_20
  1294  0FC8                     u276_21:
  1295  0FC8  2FB4               	goto	i1l1841
  1296  0FC9                     u276_20:
  1297  0FC9                     i1l601:
  1298  0FC9  1879               	btfsc	___xxtofl@exp,0
  1299  0FCA  2FCC               	goto	u277_21
  1300  0FCB  2FCD               	goto	u277_20
  1301  0FCC                     u277_21:
  1302  0FCC  2FD5               	goto	i1l602
  1303  0FCD                     u277_20:
  1304  0FCD                     i1l1847:
  1305  0FCD  30FF               	movlw	255
  1306  0FCE  05FA               	andwf	___xxtofl@arg,f
  1307  0FCF  30FF               	movlw	255
  1308  0FD0  05FB               	andwf	___xxtofl@arg+1,f
  1309  0FD1  307F               	movlw	127
  1310  0FD2  05FC               	andwf	___xxtofl@arg+2,f
  1311  0FD3  30FF               	movlw	255
  1312  0FD4  05FD               	andwf	___xxtofl@arg+3,f
  1313  0FD5                     i1l602:
  1314  0FD5  1003               	clrc
  1315  0FD6  0CF9               	rrf	___xxtofl@exp,f
  1316  0FD7                     i1l1849:
  1317  0FD7  0879               	movf	___xxtofl@exp,w
  1318  0FD8  00F4               	movwf	??___xxtofl
  1319  0FD9  01F5               	clrf	??___xxtofl+1
  1320  0FDA  01F6               	clrf	??___xxtofl+2
  1321  0FDB  01F7               	clrf	??___xxtofl+3
  1322  0FDC  3018               	movlw	24
  1323  0FDD                     u278_25:
  1324  0FDD  1003               	clrc
  1325  0FDE  0DF4               	rlf	??___xxtofl,f
  1326  0FDF  0DF5               	rlf	??___xxtofl+1,f
  1327  0FE0  0DF6               	rlf	??___xxtofl+2,f
  1328  0FE1  0DF7               	rlf	??___xxtofl+3,f
  1329  0FE2                     u278_20:
  1330  0FE2  3EFF               	addlw	-1
  1331  0FE3  1D03               	skipz
  1332  0FE4  2FDD               	goto	u278_25
  1333  0FE5  0874               	movf	??___xxtofl,w
  1334  0FE6  04FA               	iorwf	___xxtofl@arg,f
  1335  0FE7  0875               	movf	??___xxtofl+1,w
  1336  0FE8  04FB               	iorwf	___xxtofl@arg+1,f
  1337  0FE9  0876               	movf	??___xxtofl+2,w
  1338  0FEA  04FC               	iorwf	___xxtofl@arg+2,f
  1339  0FEB  0877               	movf	??___xxtofl+3,w
  1340  0FEC  04FD               	iorwf	___xxtofl@arg+3,f
  1341  0FED                     i1l1851:
  1342  0FED  0878               	movf	___xxtofl@sign,w
  1343  0FEE  1903               	btfsc	3,2
  1344  0FEF  2FF1               	goto	u279_21
  1345  0FF0  2FF2               	goto	u279_20
  1346  0FF1                     u279_21:
  1347  0FF1  2FF7               	goto	i1l1857
  1348  0FF2                     u279_20:
  1349  0FF2                     i1l1853:
  1350  0FF2  1FF3               	btfss	___xxtofl@val+3,7
  1351  0FF3  2FF5               	goto	u280_21
  1352  0FF4  2FF6               	goto	u280_20
  1353  0FF5                     u280_21:
  1354  0FF5  2FF7               	goto	i1l1857
  1355  0FF6                     u280_20:
  1356  0FF6                     i1l1855:
  1357  0FF6  17FD               	bsf	___xxtofl@arg+3,7
  1358  0FF7                     i1l1857:
  1359  0FF7  087D               	movf	___xxtofl@arg+3,w
  1360  0FF8  00F3               	movwf	?___xxtofl+3
  1361  0FF9  087C               	movf	___xxtofl@arg+2,w
  1362  0FFA  00F2               	movwf	?___xxtofl+2
  1363  0FFB  087B               	movf	___xxtofl@arg+1,w
  1364  0FFC  00F1               	movwf	?___xxtofl+1
  1365  0FFD  087A               	movf	___xxtofl@arg,w
  1366  0FFE  00F0               	movwf	?___xxtofl
  1367  0FFF                     i1l590:
  1368  0FFF  0008               	return
  1369  1000                     __end_of___xxtofl:
  1370                           
  1371                           	psect	text5
  1372  0DF8                     __ptext5:	
  1373 ;; *************** function ___fltol *****************
  1374 ;; Defined at:
  1375 ;;		line 43 in file "C:\Program Files\Microchip\xc8\v2.35\pic\sources\c90\common\fltol.c"
  1376 ;; Parameters:    Size  Location     Type
  1377 ;;  f1              4   72[BANK0 ] unsigned char 
  1378 ;; Auto vars:     Size  Location     Type
  1379 ;;  exp1            1   77[BANK0 ] unsigned char 
  1380 ;;  sign1           1   76[BANK0 ] unsigned char 
  1381 ;; Return value:  Size  Location     Type
  1382 ;;                  4   72[BANK0 ] long 
  1383 ;; Registers used:
  1384 ;;		wreg, status,2, status,0
  1385 ;; Tracked objects:
  1386 ;;		On entry : 0/0
  1387 ;;		On exit  : 0/0
  1388 ;;		Unchanged: 0/0
  1389 ;; Data sizes:     COMMON   BANK0   BANK1   BANK3   BANK2
  1390 ;;      Params:         0       4       0       0       0
  1391 ;;      Locals:         0       2       0       0       0
  1392 ;;      Temps:          0       0       5       0       0
  1393 ;;      Totals:         0       6       5       0       0
  1394 ;;Total ram usage:       11 bytes
  1395 ;; Hardware stack levels used: 1
  1396 ;; This function calls:
  1397 ;;		Nothing
  1398 ;; This function is called by:
  1399 ;;		_interpol
  1400 ;; This function uses a non-reentrant model
  1401 ;;
  1402                           
  1403  0DF8                     ___fltol:	
  1404                           ;psect for function ___fltol
  1405                           
  1406  0DF8                     i1l1305:	
  1407                           ;incstack = 0
  1408                           ; Regs used in ___fltol: [wreg+status,2+status,0]
  1409                           
  1410  0DF8  1003               	clrc
  1411  0DF9  1283               	bcf	3,5	;RP0=0, select bank0
  1412  0DFA  1303               	bcf	3,6	;RP1=0, select bank0
  1413  0DFB  0D6A               	rlf	___fltol@f1+2,w
  1414  0DFC  0D6B               	rlf	___fltol@f1+3,w
  1415  0DFD  1683               	bsf	3,5	;RP0=1, select bank1
  1416  0DFE  1303               	bcf	3,6	;RP1=0, select bank1
  1417  0DFF  00A0               	movwf	??___fltol^(0+128)
  1418  0E00  0820               	movf	??___fltol^(0+128),w
  1419  0E01  1283               	bcf	3,5	;RP0=0, select bank0
  1420  0E02  1303               	bcf	3,6	;RP1=0, select bank0
  1421  0E03  00ED               	movwf	___fltol@exp1
  1422  0E04  086D               	movf	___fltol@exp1,w
  1423  0E05  1D03               	btfss	3,2
  1424  0E06  2E08               	goto	u145_21
  1425  0E07  2E09               	goto	u145_20
  1426  0E08                     u145_21:
  1427  0E08  2E12               	goto	i1l1311
  1428  0E09                     u145_20:
  1429  0E09                     i1l1307:
  1430  0E09  3000               	movlw	0
  1431  0E0A  00EB               	movwf	?___fltol+3
  1432  0E0B  3000               	movlw	0
  1433  0E0C  00EA               	movwf	?___fltol+2
  1434  0E0D  3000               	movlw	0
  1435  0E0E  00E9               	movwf	?___fltol+1
  1436  0E0F  3000               	movlw	0
  1437  0E10  00E8               	movwf	?___fltol
  1438  0E11  2E93               	goto	i1l341
  1439  0E12                     i1l1311:
  1440  0E12  0868               	movf	___fltol@f1,w
  1441  0E13  1683               	bsf	3,5	;RP0=1, select bank1
  1442  0E14  1303               	bcf	3,6	;RP1=0, select bank1
  1443  0E15  00A0               	movwf	??___fltol^(0+128)
  1444  0E16  1283               	bcf	3,5	;RP0=0, select bank0
  1445  0E17  1303               	bcf	3,6	;RP1=0, select bank0
  1446  0E18  0869               	movf	___fltol@f1+1,w
  1447  0E19  1683               	bsf	3,5	;RP0=1, select bank1
  1448  0E1A  1303               	bcf	3,6	;RP1=0, select bank1
  1449  0E1B  00A1               	movwf	(??___fltol^(0+128)+1)
  1450  0E1C  1283               	bcf	3,5	;RP0=0, select bank0
  1451  0E1D  1303               	bcf	3,6	;RP1=0, select bank0
  1452  0E1E  086A               	movf	___fltol@f1+2,w
  1453  0E1F  1683               	bsf	3,5	;RP0=1, select bank1
  1454  0E20  1303               	bcf	3,6	;RP1=0, select bank1
  1455  0E21  00A2               	movwf	(??___fltol^(0+128)+2)
  1456  0E22  1283               	bcf	3,5	;RP0=0, select bank0
  1457  0E23  1303               	bcf	3,6	;RP1=0, select bank0
  1458  0E24  086B               	movf	___fltol@f1+3,w
  1459  0E25  1683               	bsf	3,5	;RP0=1, select bank1
  1460  0E26  1303               	bcf	3,6	;RP1=0, select bank1
  1461  0E27  00A3               	movwf	(??___fltol^(0+128)+3)
  1462  0E28  301F               	movlw	31
  1463  0E29                     u146_25:
  1464  0E29  1003               	clrc
  1465  0E2A  0CA3               	rrf	(??___fltol^(0+128)+3),f
  1466  0E2B  0CA2               	rrf	(??___fltol^(0+128)+2),f
  1467  0E2C  0CA1               	rrf	(??___fltol^(0+128)+1),f
  1468  0E2D  0CA0               	rrf	??___fltol^(0+128),f
  1469  0E2E                     u146_20:
  1470  0E2E  3EFF               	addlw	-1
  1471  0E2F  1D03               	skipz
  1472  0E30  2E29               	goto	u146_25
  1473  0E31  0820               	movf	??___fltol^(0+128),w
  1474  0E32  00A4               	movwf	(??___fltol+4)^(0+128)
  1475  0E33  0824               	movf	(??___fltol+4)^(0+128),w
  1476  0E34  1283               	bcf	3,5	;RP0=0, select bank0
  1477  0E35  1303               	bcf	3,6	;RP1=0, select bank0
  1478  0E36  00EC               	movwf	___fltol@sign1
  1479  0E37                     i1l1313:
  1480  0E37  17EA               	bsf	___fltol@f1+2,7
  1481  0E38                     i1l1315:
  1482  0E38  30FF               	movlw	255
  1483  0E39  05E8               	andwf	___fltol@f1,f
  1484  0E3A  30FF               	movlw	255
  1485  0E3B  05E9               	andwf	___fltol@f1+1,f
  1486  0E3C  30FF               	movlw	255
  1487  0E3D  05EA               	andwf	___fltol@f1+2,f
  1488  0E3E  3000               	movlw	0
  1489  0E3F  05EB               	andwf	___fltol@f1+3,f
  1490  0E40                     i1l1317:
  1491  0E40  3096               	movlw	150
  1492  0E41  02ED               	subwf	___fltol@exp1,f
  1493  0E42                     i1l1319:
  1494  0E42  1FED               	btfss	___fltol@exp1,7
  1495  0E43  2E45               	goto	u147_21
  1496  0E44  2E46               	goto	u147_20
  1497  0E45                     u147_21:
  1498  0E45  2E64               	goto	i1l1329
  1499  0E46                     u147_20:
  1500  0E46                     i1l1321:
  1501  0E46  086D               	movf	___fltol@exp1,w
  1502  0E47  3A80               	xorlw	128
  1503  0E48  3E97               	addlw	151
  1504  0E49  1803               	skipnc
  1505  0E4A  2E4C               	goto	u148_21
  1506  0E4B  2E4D               	goto	u148_20
  1507  0E4C                     u148_21:
  1508  0E4C  2E4E               	goto	i1l1327
  1509  0E4D                     u148_20:
  1510  0E4D  2E09               	goto	i1l1307
  1511  0E4E                     i1l1327:
  1512  0E4E  3001               	movlw	1
  1513  0E4F                     u149_25:
  1514  0E4F  1003               	clrc
  1515  0E50  0CEB               	rrf	___fltol@f1+3,f
  1516  0E51  0CEA               	rrf	___fltol@f1+2,f
  1517  0E52  0CE9               	rrf	___fltol@f1+1,f
  1518  0E53  0CE8               	rrf	___fltol@f1,f
  1519  0E54  3EFF               	addlw	-1
  1520  0E55  1D03               	skipz
  1521  0E56  2E4F               	goto	u149_25
  1522  0E57  3001               	movlw	1
  1523  0E58  1683               	bsf	3,5	;RP0=1, select bank1
  1524  0E59  1303               	bcf	3,6	;RP1=0, select bank1
  1525  0E5A  00A0               	movwf	??___fltol^(0+128)
  1526  0E5B  0820               	movf	??___fltol^(0+128),w
  1527  0E5C  1283               	bcf	3,5	;RP0=0, select bank0
  1528  0E5D  1303               	bcf	3,6	;RP1=0, select bank0
  1529  0E5E  07ED               	addwf	___fltol@exp1,f
  1530  0E5F  1D03               	btfss	3,2
  1531  0E60  2E62               	goto	u150_21
  1532  0E61  2E63               	goto	u150_20
  1533  0E62                     u150_21:
  1534  0E62  2E4E               	goto	i1l1327
  1535  0E63                     u150_20:
  1536  0E63  2E83               	goto	i1l1337
  1537  0E64                     i1l1329:
  1538  0E64  3020               	movlw	32
  1539  0E65  026D               	subwf	___fltol@exp1,w
  1540  0E66  1C03               	skipc
  1541  0E67  2E69               	goto	u151_21
  1542  0E68  2E6A               	goto	u151_20
  1543  0E69                     u151_21:
  1544  0E69  2E7E               	goto	i1l348
  1545  0E6A                     u151_20:
  1546  0E6A  2E09               	goto	i1l1307
  1547  0E6B                     i1l1335:
  1548  0E6B  3001               	movlw	1
  1549  0E6C  1683               	bsf	3,5	;RP0=1, select bank1
  1550  0E6D  1303               	bcf	3,6	;RP1=0, select bank1
  1551  0E6E  00A0               	movwf	??___fltol^(0+128)
  1552  0E6F                     u152_25:
  1553  0E6F  1003               	clrc
  1554  0E70  1283               	bcf	3,5	;RP0=0, select bank0
  1555  0E71  1303               	bcf	3,6	;RP1=0, select bank0
  1556  0E72  0DE8               	rlf	___fltol@f1,f
  1557  0E73  0DE9               	rlf	___fltol@f1+1,f
  1558  0E74  0DEA               	rlf	___fltol@f1+2,f
  1559  0E75  0DEB               	rlf	___fltol@f1+3,f
  1560  0E76  1683               	bsf	3,5	;RP0=1, select bank1
  1561  0E77  1303               	bcf	3,6	;RP1=0, select bank1
  1562  0E78  0BA0               	decfsz	??___fltol^(0+128),f
  1563  0E79  2E6F               	goto	u152_25
  1564  0E7A  3001               	movlw	1
  1565  0E7B  1283               	bcf	3,5	;RP0=0, select bank0
  1566  0E7C  1303               	bcf	3,6	;RP1=0, select bank0
  1567  0E7D  02ED               	subwf	___fltol@exp1,f
  1568  0E7E                     i1l348:
  1569  0E7E  086D               	movf	___fltol@exp1,w
  1570  0E7F  1D03               	btfss	3,2
  1571  0E80  2E82               	goto	u153_21
  1572  0E81  2E83               	goto	u153_20
  1573  0E82                     u153_21:
  1574  0E82  2E6B               	goto	i1l1335
  1575  0E83                     u153_20:
  1576  0E83                     i1l1337:
  1577  0E83  086C               	movf	___fltol@sign1,w
  1578  0E84  1903               	btfsc	3,2
  1579  0E85  2E87               	goto	u154_21
  1580  0E86  2E88               	goto	u154_20
  1581  0E87                     u154_21:
  1582  0E87  2E93               	goto	i1l351
  1583  0E88                     u154_20:
  1584  0E88                     i1l1339:
  1585  0E88  09E8               	comf	___fltol@f1,f
  1586  0E89  09E9               	comf	___fltol@f1+1,f
  1587  0E8A  09EA               	comf	___fltol@f1+2,f
  1588  0E8B  09EB               	comf	___fltol@f1+3,f
  1589  0E8C  0AE8               	incf	___fltol@f1,f
  1590  0E8D  1903               	skipnz
  1591  0E8E  0AE9               	incf	___fltol@f1+1,f
  1592  0E8F  1903               	skipnz
  1593  0E90  0AEA               	incf	___fltol@f1+2,f
  1594  0E91  1903               	skipnz
  1595  0E92  0AEB               	incf	___fltol@f1+3,f
  1596  0E93                     i1l351:
  1597  0E93                     i1l341:
  1598  0E93  0008               	return
  1599  0E94                     __end_of___fltol:
  1600                           
  1601                           	psect	text6
  1602  001E                     __ptext6:	
  1603 ;; *************** function ___flmul *****************
  1604 ;; Defined at:
  1605 ;;		line 8 in file "C:\Program Files\Microchip\xc8\v2.35\pic\sources\c90\common\sprcmul.c"
  1606 ;; Parameters:    Size  Location     Type
  1607 ;;  b               4   26[BANK0 ] long 
  1608 ;;  a               4   30[BANK0 ] long 
  1609 ;; Auto vars:     Size  Location     Type
  1610 ;;  prod            4   46[BANK0 ] struct .
  1611 ;;  grs             4   40[BANK0 ] unsigned long 
  1612 ;;  temp            2   50[BANK0 ] struct .
  1613 ;;  bexp            1   45[BANK0 ] unsigned char 
  1614 ;;  aexp            1   44[BANK0 ] unsigned char 
  1615 ;;  sign            1   39[BANK0 ] unsigned char 
  1616 ;; Return value:  Size  Location     Type
  1617 ;;                  4   26[BANK0 ] unsigned char 
  1618 ;; Registers used:
  1619 ;;		wreg, status,2, status,0, btemp+1, pclath, cstack
  1620 ;; Tracked objects:
  1621 ;;		On entry : 0/0
  1622 ;;		On exit  : 0/0
  1623 ;;		Unchanged: 0/0
  1624 ;; Data sizes:     COMMON   BANK0   BANK1   BANK3   BANK2
  1625 ;;      Params:         0       8       0       0       0
  1626 ;;      Locals:         0      13       0       0       0
  1627 ;;      Temps:          0       5       0       0       0
  1628 ;;      Totals:         0      26       0       0       0
  1629 ;;Total ram usage:       26 bytes
  1630 ;; Hardware stack levels used: 1
  1631 ;; Hardware stack levels required when called: 1
  1632 ;; This function calls:
  1633 ;;		__Umul8_16
  1634 ;; This function is called by:
  1635 ;;		_interpol
  1636 ;; This function uses a non-reentrant model
  1637 ;;
  1638                           
  1639  001E                     ___flmul:	
  1640                           ;psect for function ___flmul
  1641                           
  1642  001E                     i1l1677:	
  1643                           ;incstack = 0
  1644                           ; Regs used in ___flmul: [wreg+status,2+status,0+btemp+1+pclath+cstack]
  1645                           
  1646  001E  1283               	bcf	3,5	;RP0=0, select bank0
  1647  001F  1303               	bcf	3,6	;RP1=0, select bank0
  1648  0020  083D               	movf	___flmul@b+3,w
  1649  0021  3980               	andlw	128
  1650  0022  00C2               	movwf	??___flmul
  1651  0023  0842               	movf	??___flmul,w
  1652  0024  00C7               	movwf	___flmul@sign
  1653  0025                     i1l1679:
  1654  0025  083D               	movf	___flmul@b+3,w
  1655  0026  00C2               	movwf	??___flmul
  1656  0027  0742               	addwf	??___flmul,w
  1657  0028  00C3               	movwf	??___flmul+1
  1658  0029  0843               	movf	??___flmul+1,w
  1659  002A  00CD               	movwf	___flmul@bexp
  1660  002B                     i1l1681:
  1661  002B  1FBC               	btfss	___flmul@b+2,7
  1662  002C  282E               	goto	u230_21
  1663  002D  282F               	goto	u230_20
  1664  002E                     u230_21:
  1665  002E  2830               	goto	i1l1685
  1666  002F                     u230_20:
  1667  002F                     i1l1683:
  1668  002F  144D               	bsf	___flmul@bexp,0
  1669  0030                     i1l1685:
  1670  0030  084D               	movf	___flmul@bexp,w
  1671  0031  1903               	btfsc	3,2
  1672  0032  2834               	goto	u231_21
  1673  0033  2835               	goto	u231_20
  1674  0034                     u231_21:
  1675  0034  2844               	goto	i1l1693
  1676  0035                     u231_20:
  1677  0035                     i1l1687:
  1678  0035  0A4D               	incf	___flmul@bexp,w
  1679  0036  1D03               	btfss	3,2
  1680  0037  2839               	goto	u232_21
  1681  0038  283A               	goto	u232_20
  1682  0039                     u232_21:
  1683  0039  2842               	goto	i1l1691
  1684  003A                     u232_20:
  1685  003A                     i1l1689:
  1686  003A  3000               	movlw	0
  1687  003B  00BD               	movwf	___flmul@b+3
  1688  003C  3000               	movlw	0
  1689  003D  00BC               	movwf	___flmul@b+2
  1690  003E  3000               	movlw	0
  1691  003F  00BB               	movwf	___flmul@b+1
  1692  0040  3000               	movlw	0
  1693  0041  00BA               	movwf	___flmul@b
  1694  0042                     i1l1691:
  1695  0042  17BC               	bsf	___flmul@b+2,7
  1696  0043  284C               	goto	i1l1695
  1697  0044                     i1l1693:
  1698  0044  3000               	movlw	0
  1699  0045  00BD               	movwf	___flmul@b+3
  1700  0046  3000               	movlw	0
  1701  0047  00BC               	movwf	___flmul@b+2
  1702  0048  3000               	movlw	0
  1703  0049  00BB               	movwf	___flmul@b+1
  1704  004A  3000               	movlw	0
  1705  004B  00BA               	movwf	___flmul@b
  1706  004C                     i1l1695:
  1707  004C  0841               	movf	___flmul@a+3,w
  1708  004D  3980               	andlw	128
  1709  004E  00C2               	movwf	??___flmul
  1710  004F  0842               	movf	??___flmul,w
  1711  0050  06C7               	xorwf	___flmul@sign,f
  1712  0051                     i1l1697:
  1713  0051  0841               	movf	___flmul@a+3,w
  1714  0052  00C2               	movwf	??___flmul
  1715  0053  0742               	addwf	??___flmul,w
  1716  0054  00C3               	movwf	??___flmul+1
  1717  0055  0843               	movf	??___flmul+1,w
  1718  0056  00CC               	movwf	___flmul@aexp
  1719  0057                     i1l1699:
  1720  0057  1FC0               	btfss	___flmul@a+2,7
  1721  0058  285A               	goto	u233_21
  1722  0059  285B               	goto	u233_20
  1723  005A                     u233_21:
  1724  005A  285C               	goto	i1l1703
  1725  005B                     u233_20:
  1726  005B                     i1l1701:
  1727  005B  144C               	bsf	___flmul@aexp,0
  1728  005C                     i1l1703:
  1729  005C  084C               	movf	___flmul@aexp,w
  1730  005D  1903               	btfsc	3,2
  1731  005E  2860               	goto	u234_21
  1732  005F  2861               	goto	u234_20
  1733  0060                     u234_21:
  1734  0060  2870               	goto	i1l1711
  1735  0061                     u234_20:
  1736  0061                     i1l1705:
  1737  0061  0A4C               	incf	___flmul@aexp,w
  1738  0062  1D03               	btfss	3,2
  1739  0063  2865               	goto	u235_21
  1740  0064  2866               	goto	u235_20
  1741  0065                     u235_21:
  1742  0065  286E               	goto	i1l1709
  1743  0066                     u235_20:
  1744  0066                     i1l1707:
  1745  0066  3000               	movlw	0
  1746  0067  00C1               	movwf	___flmul@a+3
  1747  0068  3000               	movlw	0
  1748  0069  00C0               	movwf	___flmul@a+2
  1749  006A  3000               	movlw	0
  1750  006B  00BF               	movwf	___flmul@a+1
  1751  006C  3000               	movlw	0
  1752  006D  00BE               	movwf	___flmul@a
  1753  006E                     i1l1709:
  1754  006E  17C0               	bsf	___flmul@a+2,7
  1755  006F  2878               	goto	i1l1713
  1756  0070                     i1l1711:
  1757  0070  3000               	movlw	0
  1758  0071  00C1               	movwf	___flmul@a+3
  1759  0072  3000               	movlw	0
  1760  0073  00C0               	movwf	___flmul@a+2
  1761  0074  3000               	movlw	0
  1762  0075  00BF               	movwf	___flmul@a+1
  1763  0076  3000               	movlw	0
  1764  0077  00BE               	movwf	___flmul@a
  1765  0078                     i1l1713:
  1766  0078  084C               	movf	___flmul@aexp,w
  1767  0079  1903               	btfsc	3,2
  1768  007A  287C               	goto	u236_21
  1769  007B  287D               	goto	u236_20
  1770  007C                     u236_21:
  1771  007C  2882               	goto	i1l1717
  1772  007D                     u236_20:
  1773  007D                     i1l1715:
  1774  007D  084D               	movf	___flmul@bexp,w
  1775  007E  1D03               	btfss	3,2
  1776  007F  2881               	goto	u237_21
  1777  0080  2882               	goto	u237_20
  1778  0081                     u237_21:
  1779  0081  288B               	goto	i1l1721
  1780  0082                     u237_20:
  1781  0082                     i1l1717:
  1782  0082  3000               	movlw	0
  1783  0083  00BD               	movwf	?___flmul+3
  1784  0084  3000               	movlw	0
  1785  0085  00BC               	movwf	?___flmul+2
  1786  0086  3000               	movlw	0
  1787  0087  00BB               	movwf	?___flmul+1
  1788  0088  3000               	movlw	0
  1789  0089  00BA               	movwf	?___flmul
  1790  008A  2B7E               	goto	i1l544
  1791  008B                     i1l1721:
  1792  008B  083A               	movf	___flmul@b,w
  1793  008C  00C2               	movwf	??___flmul
  1794  008D  0842               	movf	??___flmul,w
  1795  008E  00F0               	movwf	__Umul8_16@multiplicand
  1796  008F  0840               	movf	___flmul@a+2,w
  1797  0090  120A  158A  253B  120A  118A  	fcall	__Umul8_16
  1798  0095  0871               	movf	?__Umul8_16+1,w
  1799  0096  1283               	bcf	3,5	;RP0=0, select bank0
  1800  0097  1303               	bcf	3,6	;RP1=0, select bank0
  1801  0098  00D3               	movwf	___flmul@temp+1
  1802  0099  0870               	movf	?__Umul8_16,w
  1803  009A  00D2               	movwf	___flmul@temp
  1804  009B                     i1l1723:
  1805  009B  0852               	movf	___flmul@temp,w
  1806  009C  00C2               	movwf	??___flmul
  1807  009D  01C3               	clrf	??___flmul+1
  1808  009E  01C4               	clrf	??___flmul+2
  1809  009F  01C5               	clrf	??___flmul+3
  1810  00A0  0845               	movf	??___flmul+3,w
  1811  00A1  00CB               	movwf	___flmul@grs+3
  1812  00A2  0844               	movf	??___flmul+2,w
  1813  00A3  00CA               	movwf	___flmul@grs+2
  1814  00A4  0843               	movf	??___flmul+1,w
  1815  00A5  00C9               	movwf	___flmul@grs+1
  1816  00A6  0842               	movf	??___flmul,w
  1817  00A7  00C8               	movwf	___flmul@grs
  1818  00A8                     i1l1725:
  1819  00A8  0853               	movf	___flmul@temp+1,w
  1820  00A9  00C2               	movwf	??___flmul
  1821  00AA  01C3               	clrf	??___flmul+1
  1822  00AB  01C4               	clrf	??___flmul+2
  1823  00AC  01C5               	clrf	??___flmul+3
  1824  00AD  0845               	movf	??___flmul+3,w
  1825  00AE  00D1               	movwf	___flmul@prod+3
  1826  00AF  0844               	movf	??___flmul+2,w
  1827  00B0  00D0               	movwf	___flmul@prod+2
  1828  00B1  0843               	movf	??___flmul+1,w
  1829  00B2  00CF               	movwf	___flmul@prod+1
  1830  00B3  0842               	movf	??___flmul,w
  1831  00B4  00CE               	movwf	___flmul@prod
  1832  00B5  083B               	movf	___flmul@b+1,w
  1833  00B6  00C2               	movwf	??___flmul
  1834  00B7  0842               	movf	??___flmul,w
  1835  00B8  00F0               	movwf	__Umul8_16@multiplicand
  1836  00B9  083F               	movf	___flmul@a+1,w
  1837  00BA  120A  158A  253B  120A  118A  	fcall	__Umul8_16
  1838  00BF  0871               	movf	?__Umul8_16+1,w
  1839  00C0  1283               	bcf	3,5	;RP0=0, select bank0
  1840  00C1  1303               	bcf	3,6	;RP1=0, select bank0
  1841  00C2  00D3               	movwf	___flmul@temp+1
  1842  00C3  0870               	movf	?__Umul8_16,w
  1843  00C4  00D2               	movwf	___flmul@temp
  1844  00C5                     i1l1727:
  1845  00C5  0852               	movf	___flmul@temp,w
  1846  00C6  00C2               	movwf	??___flmul
  1847  00C7  01C3               	clrf	??___flmul+1
  1848  00C8  01C4               	clrf	??___flmul+2
  1849  00C9  01C5               	clrf	??___flmul+3
  1850  00CA  0842               	movf	??___flmul,w
  1851  00CB  07C8               	addwf	___flmul@grs,f
  1852  00CC  0843               	movf	??___flmul+1,w
  1853  00CD  1103               	clrz
  1854  00CE  1803               	skipnc
  1855  00CF  3E01               	addlw	1
  1856  00D0  1903               	skipnz
  1857  00D1  28D3               	goto	u238_21
  1858  00D2  07C9               	addwf	___flmul@grs+1,f
  1859  00D3                     u238_21:
  1860  00D3  0844               	movf	??___flmul+2,w
  1861  00D4  1103               	clrz
  1862  00D5  1803               	skipnc
  1863  00D6  3E01               	addlw	1
  1864  00D7  1903               	skipnz
  1865  00D8  28DA               	goto	u238_22
  1866  00D9  07CA               	addwf	___flmul@grs+2,f
  1867  00DA                     u238_22:
  1868  00DA  0845               	movf	??___flmul+3,w
  1869  00DB  1103               	clrz
  1870  00DC  1803               	skipnc
  1871  00DD  3E01               	addlw	1
  1872  00DE  1903               	skipnz
  1873  00DF  28E1               	goto	u238_23
  1874  00E0  07CB               	addwf	___flmul@grs+3,f
  1875  00E1                     u238_23:
  1876  00E1                     i1l1729:
  1877  00E1  0853               	movf	___flmul@temp+1,w
  1878  00E2  00C2               	movwf	??___flmul
  1879  00E3  01C3               	clrf	??___flmul+1
  1880  00E4  01C4               	clrf	??___flmul+2
  1881  00E5  01C5               	clrf	??___flmul+3
  1882  00E6  0842               	movf	??___flmul,w
  1883  00E7  07CE               	addwf	___flmul@prod,f
  1884  00E8  0843               	movf	??___flmul+1,w
  1885  00E9  1103               	clrz
  1886  00EA  1803               	skipnc
  1887  00EB  3E01               	addlw	1
  1888  00EC  1903               	skipnz
  1889  00ED  28EF               	goto	u239_21
  1890  00EE  07CF               	addwf	___flmul@prod+1,f
  1891  00EF                     u239_21:
  1892  00EF  0844               	movf	??___flmul+2,w
  1893  00F0  1103               	clrz
  1894  00F1  1803               	skipnc
  1895  00F2  3E01               	addlw	1
  1896  00F3  1903               	skipnz
  1897  00F4  28F6               	goto	u239_22
  1898  00F5  07D0               	addwf	___flmul@prod+2,f
  1899  00F6                     u239_22:
  1900  00F6  0845               	movf	??___flmul+3,w
  1901  00F7  1103               	clrz
  1902  00F8  1803               	skipnc
  1903  00F9  3E01               	addlw	1
  1904  00FA  1903               	skipnz
  1905  00FB  28FD               	goto	u239_23
  1906  00FC  07D1               	addwf	___flmul@prod+3,f
  1907  00FD                     u239_23:
  1908  00FD  083C               	movf	___flmul@b+2,w
  1909  00FE  00C2               	movwf	??___flmul
  1910  00FF  0842               	movf	??___flmul,w
  1911  0100  00F0               	movwf	__Umul8_16@multiplicand
  1912  0101  083E               	movf	___flmul@a,w
  1913  0102  120A  158A  253B  120A  118A  	fcall	__Umul8_16
  1914  0107  0871               	movf	?__Umul8_16+1,w
  1915  0108  1283               	bcf	3,5	;RP0=0, select bank0
  1916  0109  1303               	bcf	3,6	;RP1=0, select bank0
  1917  010A  00D3               	movwf	___flmul@temp+1
  1918  010B  0870               	movf	?__Umul8_16,w
  1919  010C  00D2               	movwf	___flmul@temp
  1920  010D                     i1l1731:
  1921  010D  0852               	movf	___flmul@temp,w
  1922  010E  00C2               	movwf	??___flmul
  1923  010F  01C3               	clrf	??___flmul+1
  1924  0110  01C4               	clrf	??___flmul+2
  1925  0111  01C5               	clrf	??___flmul+3
  1926  0112  0842               	movf	??___flmul,w
  1927  0113  07C8               	addwf	___flmul@grs,f
  1928  0114  0843               	movf	??___flmul+1,w
  1929  0115  1103               	clrz
  1930  0116  1803               	skipnc
  1931  0117  3E01               	addlw	1
  1932  0118  1903               	skipnz
  1933  0119  291B               	goto	u240_21
  1934  011A  07C9               	addwf	___flmul@grs+1,f
  1935  011B                     u240_21:
  1936  011B  0844               	movf	??___flmul+2,w
  1937  011C  1103               	clrz
  1938  011D  1803               	skipnc
  1939  011E  3E01               	addlw	1
  1940  011F  1903               	skipnz
  1941  0120  2922               	goto	u240_22
  1942  0121  07CA               	addwf	___flmul@grs+2,f
  1943  0122                     u240_22:
  1944  0122  0845               	movf	??___flmul+3,w
  1945  0123  1103               	clrz
  1946  0124  1803               	skipnc
  1947  0125  3E01               	addlw	1
  1948  0126  1903               	skipnz
  1949  0127  2929               	goto	u240_23
  1950  0128  07CB               	addwf	___flmul@grs+3,f
  1951  0129                     u240_23:
  1952  0129                     i1l1733:
  1953  0129  0853               	movf	___flmul@temp+1,w
  1954  012A  00C2               	movwf	??___flmul
  1955  012B  01C3               	clrf	??___flmul+1
  1956  012C  01C4               	clrf	??___flmul+2
  1957  012D  01C5               	clrf	??___flmul+3
  1958  012E  0842               	movf	??___flmul,w
  1959  012F  07CE               	addwf	___flmul@prod,f
  1960  0130  0843               	movf	??___flmul+1,w
  1961  0131  1103               	clrz
  1962  0132  1803               	skipnc
  1963  0133  3E01               	addlw	1
  1964  0134  1903               	skipnz
  1965  0135  2937               	goto	u241_21
  1966  0136  07CF               	addwf	___flmul@prod+1,f
  1967  0137                     u241_21:
  1968  0137  0844               	movf	??___flmul+2,w
  1969  0138  1103               	clrz
  1970  0139  1803               	skipnc
  1971  013A  3E01               	addlw	1
  1972  013B  1903               	skipnz
  1973  013C  293E               	goto	u241_22
  1974  013D  07D0               	addwf	___flmul@prod+2,f
  1975  013E                     u241_22:
  1976  013E  0845               	movf	??___flmul+3,w
  1977  013F  1103               	clrz
  1978  0140  1803               	skipnc
  1979  0141  3E01               	addlw	1
  1980  0142  1903               	skipnz
  1981  0143  2945               	goto	u241_23
  1982  0144  07D1               	addwf	___flmul@prod+3,f
  1983  0145                     u241_23:
  1984  0145                     i1l1735:
  1985  0145  3008               	movlw	8
  1986  0146  00C2               	movwf	??___flmul
  1987  0147                     u242_25:
  1988  0147  1003               	clrc
  1989  0148  0DC8               	rlf	___flmul@grs,f
  1990  0149  0DC9               	rlf	___flmul@grs+1,f
  1991  014A  0DCA               	rlf	___flmul@grs+2,f
  1992  014B  0DCB               	rlf	___flmul@grs+3,f
  1993  014C  0BC2               	decfsz	??___flmul,f
  1994  014D  2947               	goto	u242_25
  1995  014E                     i1l1737:
  1996  014E  083B               	movf	___flmul@b+1,w
  1997  014F  00C2               	movwf	??___flmul
  1998  0150  0842               	movf	??___flmul,w
  1999  0151  00F0               	movwf	__Umul8_16@multiplicand
  2000  0152  083E               	movf	___flmul@a,w
  2001  0153  120A  158A  253B  120A  118A  	fcall	__Umul8_16
  2002  0158  0871               	movf	?__Umul8_16+1,w
  2003  0159  1283               	bcf	3,5	;RP0=0, select bank0
  2004  015A  1303               	bcf	3,6	;RP1=0, select bank0
  2005  015B  00D3               	movwf	___flmul@temp+1
  2006  015C  0870               	movf	?__Umul8_16,w
  2007  015D  00D2               	movwf	___flmul@temp
  2008  015E                     i1l1739:
  2009  015E  0852               	movf	___flmul@temp,w
  2010  015F  00C2               	movwf	??___flmul
  2011  0160  0853               	movf	___flmul@temp+1,w
  2012  0161  00C3               	movwf	??___flmul+1
  2013  0162  01C4               	clrf	??___flmul+2
  2014  0163  01C5               	clrf	??___flmul+3
  2015  0164  0842               	movf	??___flmul,w
  2016  0165  07C8               	addwf	___flmul@grs,f
  2017  0166  0843               	movf	??___flmul+1,w
  2018  0167  1103               	clrz
  2019  0168  1803               	skipnc
  2020  0169  3E01               	addlw	1
  2021  016A  1903               	skipnz
  2022  016B  296D               	goto	u243_21
  2023  016C  07C9               	addwf	___flmul@grs+1,f
  2024  016D                     u243_21:
  2025  016D  0844               	movf	??___flmul+2,w
  2026  016E  1103               	clrz
  2027  016F  1803               	skipnc
  2028  0170  3E01               	addlw	1
  2029  0171  1903               	skipnz
  2030  0172  2974               	goto	u243_22
  2031  0173  07CA               	addwf	___flmul@grs+2,f
  2032  0174                     u243_22:
  2033  0174  0845               	movf	??___flmul+3,w
  2034  0175  1103               	clrz
  2035  0176  1803               	skipnc
  2036  0177  3E01               	addlw	1
  2037  0178  1903               	skipnz
  2038  0179  297B               	goto	u243_23
  2039  017A  07CB               	addwf	___flmul@grs+3,f
  2040  017B                     u243_23:
  2041  017B                     i1l1741:
  2042  017B  083A               	movf	___flmul@b,w
  2043  017C  00C2               	movwf	??___flmul
  2044  017D  0842               	movf	??___flmul,w
  2045  017E  00F0               	movwf	__Umul8_16@multiplicand
  2046  017F  083F               	movf	___flmul@a+1,w
  2047  0180  120A  158A  253B  120A  118A  	fcall	__Umul8_16
  2048  0185  0871               	movf	?__Umul8_16+1,w
  2049  0186  1283               	bcf	3,5	;RP0=0, select bank0
  2050  0187  1303               	bcf	3,6	;RP1=0, select bank0
  2051  0188  00D3               	movwf	___flmul@temp+1
  2052  0189  0870               	movf	?__Umul8_16,w
  2053  018A  00D2               	movwf	___flmul@temp
  2054  018B                     i1l1743:
  2055  018B  0852               	movf	___flmul@temp,w
  2056  018C  00C2               	movwf	??___flmul
  2057  018D  0853               	movf	___flmul@temp+1,w
  2058  018E  00C3               	movwf	??___flmul+1
  2059  018F  01C4               	clrf	??___flmul+2
  2060  0190  01C5               	clrf	??___flmul+3
  2061  0191  0842               	movf	??___flmul,w
  2062  0192  07C8               	addwf	___flmul@grs,f
  2063  0193  0843               	movf	??___flmul+1,w
  2064  0194  1103               	clrz
  2065  0195  1803               	skipnc
  2066  0196  3E01               	addlw	1
  2067  0197  1903               	skipnz
  2068  0198  299A               	goto	u244_21
  2069  0199  07C9               	addwf	___flmul@grs+1,f
  2070  019A                     u244_21:
  2071  019A  0844               	movf	??___flmul+2,w
  2072  019B  1103               	clrz
  2073  019C  1803               	skipnc
  2074  019D  3E01               	addlw	1
  2075  019E  1903               	skipnz
  2076  019F  29A1               	goto	u244_22
  2077  01A0  07CA               	addwf	___flmul@grs+2,f
  2078  01A1                     u244_22:
  2079  01A1  0845               	movf	??___flmul+3,w
  2080  01A2  1103               	clrz
  2081  01A3  1803               	skipnc
  2082  01A4  3E01               	addlw	1
  2083  01A5  1903               	skipnz
  2084  01A6  29A8               	goto	u244_23
  2085  01A7  07CB               	addwf	___flmul@grs+3,f
  2086  01A8                     u244_23:
  2087  01A8                     i1l1745:
  2088  01A8  3008               	movlw	8
  2089  01A9  00C2               	movwf	??___flmul
  2090  01AA                     u245_25:
  2091  01AA  1003               	clrc
  2092  01AB  0DC8               	rlf	___flmul@grs,f
  2093  01AC  0DC9               	rlf	___flmul@grs+1,f
  2094  01AD  0DCA               	rlf	___flmul@grs+2,f
  2095  01AE  0DCB               	rlf	___flmul@grs+3,f
  2096  01AF  0BC2               	decfsz	??___flmul,f
  2097  01B0  29AA               	goto	u245_25
  2098  01B1  083A               	movf	___flmul@b,w
  2099  01B2  00C2               	movwf	??___flmul
  2100  01B3  0842               	movf	??___flmul,w
  2101  01B4  00F0               	movwf	__Umul8_16@multiplicand
  2102  01B5  083E               	movf	___flmul@a,w
  2103  01B6  120A  158A  253B  120A  118A  	fcall	__Umul8_16
  2104  01BB  0871               	movf	?__Umul8_16+1,w
  2105  01BC  1283               	bcf	3,5	;RP0=0, select bank0
  2106  01BD  1303               	bcf	3,6	;RP1=0, select bank0
  2107  01BE  00D3               	movwf	___flmul@temp+1
  2108  01BF  0870               	movf	?__Umul8_16,w
  2109  01C0  00D2               	movwf	___flmul@temp
  2110  01C1                     i1l1747:
  2111  01C1  0852               	movf	___flmul@temp,w
  2112  01C2  00C2               	movwf	??___flmul
  2113  01C3  0853               	movf	___flmul@temp+1,w
  2114  01C4  00C3               	movwf	??___flmul+1
  2115  01C5  01C4               	clrf	??___flmul+2
  2116  01C6  01C5               	clrf	??___flmul+3
  2117  01C7  0842               	movf	??___flmul,w
  2118  01C8  07C8               	addwf	___flmul@grs,f
  2119  01C9  0843               	movf	??___flmul+1,w
  2120  01CA  1103               	clrz
  2121  01CB  1803               	skipnc
  2122  01CC  3E01               	addlw	1
  2123  01CD  1903               	skipnz
  2124  01CE  29D0               	goto	u246_21
  2125  01CF  07C9               	addwf	___flmul@grs+1,f
  2126  01D0                     u246_21:
  2127  01D0  0844               	movf	??___flmul+2,w
  2128  01D1  1103               	clrz
  2129  01D2  1803               	skipnc
  2130  01D3  3E01               	addlw	1
  2131  01D4  1903               	skipnz
  2132  01D5  29D7               	goto	u246_22
  2133  01D6  07CA               	addwf	___flmul@grs+2,f
  2134  01D7                     u246_22:
  2135  01D7  0845               	movf	??___flmul+3,w
  2136  01D8  1103               	clrz
  2137  01D9  1803               	skipnc
  2138  01DA  3E01               	addlw	1
  2139  01DB  1903               	skipnz
  2140  01DC  29DE               	goto	u246_23
  2141  01DD  07CB               	addwf	___flmul@grs+3,f
  2142  01DE                     u246_23:
  2143  01DE                     i1l1749:
  2144  01DE  083B               	movf	___flmul@b+1,w
  2145  01DF  00C2               	movwf	??___flmul
  2146  01E0  0842               	movf	??___flmul,w
  2147  01E1  00F0               	movwf	__Umul8_16@multiplicand
  2148  01E2  0840               	movf	___flmul@a+2,w
  2149  01E3  120A  158A  253B  120A  118A  	fcall	__Umul8_16
  2150  01E8  0871               	movf	?__Umul8_16+1,w
  2151  01E9  1283               	bcf	3,5	;RP0=0, select bank0
  2152  01EA  1303               	bcf	3,6	;RP1=0, select bank0
  2153  01EB  00D3               	movwf	___flmul@temp+1
  2154  01EC  0870               	movf	?__Umul8_16,w
  2155  01ED  00D2               	movwf	___flmul@temp
  2156  01EE  0852               	movf	___flmul@temp,w
  2157  01EF  00C2               	movwf	??___flmul
  2158  01F0  0853               	movf	___flmul@temp+1,w
  2159  01F1  00C3               	movwf	??___flmul+1
  2160  01F2  01C4               	clrf	??___flmul+2
  2161  01F3  01C5               	clrf	??___flmul+3
  2162  01F4  0842               	movf	??___flmul,w
  2163  01F5  07CE               	addwf	___flmul@prod,f
  2164  01F6  0843               	movf	??___flmul+1,w
  2165  01F7  1103               	clrz
  2166  01F8  1803               	skipnc
  2167  01F9  3E01               	addlw	1
  2168  01FA  1903               	skipnz
  2169  01FB  29FD               	goto	u247_21
  2170  01FC  07CF               	addwf	___flmul@prod+1,f
  2171  01FD                     u247_21:
  2172  01FD  0844               	movf	??___flmul+2,w
  2173  01FE  1103               	clrz
  2174  01FF  1803               	skipnc
  2175  0200  3E01               	addlw	1
  2176  0201  1903               	skipnz
  2177  0202  2A04               	goto	u247_22
  2178  0203  07D0               	addwf	___flmul@prod+2,f
  2179  0204                     u247_22:
  2180  0204  0845               	movf	??___flmul+3,w
  2181  0205  1103               	clrz
  2182  0206  1803               	skipnc
  2183  0207  3E01               	addlw	1
  2184  0208  1903               	skipnz
  2185  0209  2A0B               	goto	u247_23
  2186  020A  07D1               	addwf	___flmul@prod+3,f
  2187  020B                     u247_23:
  2188  020B                     i1l1751:
  2189  020B  083C               	movf	___flmul@b+2,w
  2190  020C  00C2               	movwf	??___flmul
  2191  020D  0842               	movf	??___flmul,w
  2192  020E  00F0               	movwf	__Umul8_16@multiplicand
  2193  020F  083F               	movf	___flmul@a+1,w
  2194  0210  120A  158A  253B  120A  118A  	fcall	__Umul8_16
  2195  0215  0871               	movf	?__Umul8_16+1,w
  2196  0216  1283               	bcf	3,5	;RP0=0, select bank0
  2197  0217  1303               	bcf	3,6	;RP1=0, select bank0
  2198  0218  00D3               	movwf	___flmul@temp+1
  2199  0219  0870               	movf	?__Umul8_16,w
  2200  021A  00D2               	movwf	___flmul@temp
  2201  021B                     i1l1753:
  2202  021B  0852               	movf	___flmul@temp,w
  2203  021C  00C2               	movwf	??___flmul
  2204  021D  0853               	movf	___flmul@temp+1,w
  2205  021E  00C3               	movwf	??___flmul+1
  2206  021F  01C4               	clrf	??___flmul+2
  2207  0220  01C5               	clrf	??___flmul+3
  2208  0221  0842               	movf	??___flmul,w
  2209  0222  07CE               	addwf	___flmul@prod,f
  2210  0223  0843               	movf	??___flmul+1,w
  2211  0224  1103               	clrz
  2212  0225  1803               	skipnc
  2213  0226  3E01               	addlw	1
  2214  0227  1903               	skipnz
  2215  0228  2A2A               	goto	u248_21
  2216  0229  07CF               	addwf	___flmul@prod+1,f
  2217  022A                     u248_21:
  2218  022A  0844               	movf	??___flmul+2,w
  2219  022B  1103               	clrz
  2220  022C  1803               	skipnc
  2221  022D  3E01               	addlw	1
  2222  022E  1903               	skipnz
  2223  022F  2A31               	goto	u248_22
  2224  0230  07D0               	addwf	___flmul@prod+2,f
  2225  0231                     u248_22:
  2226  0231  0845               	movf	??___flmul+3,w
  2227  0232  1103               	clrz
  2228  0233  1803               	skipnc
  2229  0234  3E01               	addlw	1
  2230  0235  1903               	skipnz
  2231  0236  2A38               	goto	u248_23
  2232  0237  07D1               	addwf	___flmul@prod+3,f
  2233  0238                     u248_23:
  2234  0238  083C               	movf	___flmul@b+2,w
  2235  0239  00C2               	movwf	??___flmul
  2236  023A  0842               	movf	??___flmul,w
  2237  023B  00F0               	movwf	__Umul8_16@multiplicand
  2238  023C  0840               	movf	___flmul@a+2,w
  2239  023D  120A  158A  253B  120A  118A  	fcall	__Umul8_16
  2240  0242  0871               	movf	?__Umul8_16+1,w
  2241  0243  1283               	bcf	3,5	;RP0=0, select bank0
  2242  0244  1303               	bcf	3,6	;RP1=0, select bank0
  2243  0245  00D3               	movwf	___flmul@temp+1
  2244  0246  0870               	movf	?__Umul8_16,w
  2245  0247  00D2               	movwf	___flmul@temp
  2246  0248                     i1l1755:
  2247  0248  0852               	movf	___flmul@temp,w
  2248  0249  00C2               	movwf	??___flmul
  2249  024A  0853               	movf	___flmul@temp+1,w
  2250  024B  00C3               	movwf	??___flmul+1
  2251  024C  01C4               	clrf	??___flmul+2
  2252  024D  01C5               	clrf	??___flmul+3
  2253  024E  3008               	movlw	8
  2254  024F                     u249_25:
  2255  024F  1003               	clrc
  2256  0250  0DC2               	rlf	??___flmul,f
  2257  0251  0DC3               	rlf	??___flmul+1,f
  2258  0252  0DC4               	rlf	??___flmul+2,f
  2259  0253  0DC5               	rlf	??___flmul+3,f
  2260  0254                     u249_20:
  2261  0254  3EFF               	addlw	-1
  2262  0255  1D03               	skipz
  2263  0256  2A4F               	goto	u249_25
  2264  0257  0842               	movf	??___flmul,w
  2265  0258  07CE               	addwf	___flmul@prod,f
  2266  0259  0843               	movf	??___flmul+1,w
  2267  025A  1103               	clrz
  2268  025B  1803               	skipnc
  2269  025C  3E01               	addlw	1
  2270  025D  1903               	skipnz
  2271  025E  2A60               	goto	u250_21
  2272  025F  07CF               	addwf	___flmul@prod+1,f
  2273  0260                     u250_21:
  2274  0260  0844               	movf	??___flmul+2,w
  2275  0261  1103               	clrz
  2276  0262  1803               	skipnc
  2277  0263  3E01               	addlw	1
  2278  0264  1903               	skipnz
  2279  0265  2A67               	goto	u250_22
  2280  0266  07D0               	addwf	___flmul@prod+2,f
  2281  0267                     u250_22:
  2282  0267  0845               	movf	??___flmul+3,w
  2283  0268  1103               	clrz
  2284  0269  1803               	skipnc
  2285  026A  3E01               	addlw	1
  2286  026B  1903               	skipnz
  2287  026C  2A6E               	goto	u250_23
  2288  026D  07D1               	addwf	___flmul@prod+3,f
  2289  026E                     u250_23:
  2290  026E                     i1l1757:
  2291  026E  0848               	movf	___flmul@grs,w
  2292  026F  00C2               	movwf	??___flmul
  2293  0270  0849               	movf	___flmul@grs+1,w
  2294  0271  00C3               	movwf	??___flmul+1
  2295  0272  084A               	movf	___flmul@grs+2,w
  2296  0273  00C4               	movwf	??___flmul+2
  2297  0274  084B               	movf	___flmul@grs+3,w
  2298  0275  00C5               	movwf	??___flmul+3
  2299  0276  3018               	movlw	24
  2300  0277                     u251_25:
  2301  0277  1003               	clrc
  2302  0278  0CC5               	rrf	??___flmul+3,f
  2303  0279  0CC4               	rrf	??___flmul+2,f
  2304  027A  0CC3               	rrf	??___flmul+1,f
  2305  027B  0CC2               	rrf	??___flmul,f
  2306  027C                     u251_20:
  2307  027C  3EFF               	addlw	-1
  2308  027D  1D03               	skipz
  2309  027E  2A77               	goto	u251_25
  2310  027F  0842               	movf	??___flmul,w
  2311  0280  07CE               	addwf	___flmul@prod,f
  2312  0281  0843               	movf	??___flmul+1,w
  2313  0282  1103               	clrz
  2314  0283  1803               	skipnc
  2315  0284  3E01               	addlw	1
  2316  0285  1903               	skipnz
  2317  0286  2A88               	goto	u252_21
  2318  0287  07CF               	addwf	___flmul@prod+1,f
  2319  0288                     u252_21:
  2320  0288  0844               	movf	??___flmul+2,w
  2321  0289  1103               	clrz
  2322  028A  1803               	skipnc
  2323  028B  3E01               	addlw	1
  2324  028C  1903               	skipnz
  2325  028D  2A8F               	goto	u252_22
  2326  028E  07D0               	addwf	___flmul@prod+2,f
  2327  028F                     u252_22:
  2328  028F  0845               	movf	??___flmul+3,w
  2329  0290  1103               	clrz
  2330  0291  1803               	skipnc
  2331  0292  3E01               	addlw	1
  2332  0293  1903               	skipnz
  2333  0294  2A96               	goto	u252_23
  2334  0295  07D1               	addwf	___flmul@prod+3,f
  2335  0296                     u252_23:
  2336  0296                     i1l1759:
  2337  0296  3008               	movlw	8
  2338  0297  00C2               	movwf	??___flmul
  2339  0298                     u253_25:
  2340  0298  1003               	clrc
  2341  0299  0DC8               	rlf	___flmul@grs,f
  2342  029A  0DC9               	rlf	___flmul@grs+1,f
  2343  029B  0DCA               	rlf	___flmul@grs+2,f
  2344  029C  0DCB               	rlf	___flmul@grs+3,f
  2345  029D  0BC2               	decfsz	??___flmul,f
  2346  029E  2A98               	goto	u253_25
  2347  029F                     i1l1761:
  2348  029F  084D               	movf	___flmul@bexp,w
  2349  02A0  074C               	addwf	___flmul@aexp,w
  2350  02A1  00C2               	movwf	??___flmul
  2351  02A2  01C3               	clrf	??___flmul+1
  2352  02A3  0DC3               	rlf	??___flmul+1,f
  2353  02A4  0842               	movf	??___flmul,w
  2354  02A5  3E82               	addlw	130
  2355  02A6  00D2               	movwf	___flmul@temp
  2356  02A7  0843               	movf	??___flmul+1,w
  2357  02A8  1803               	skipnc
  2358  02A9  3E01               	addlw	1
  2359  02AA  3EFF               	addlw	255
  2360  02AB  00D3               	movwf	___flmul@temp+1
  2361  02AC  2ACA               	goto	i1l1773
  2362  02AD                     i1l1763:
  2363  02AD  3001               	movlw	1
  2364  02AE  00C2               	movwf	??___flmul
  2365  02AF                     u254_25:
  2366  02AF  1003               	clrc
  2367  02B0  0DCE               	rlf	___flmul@prod,f
  2368  02B1  0DCF               	rlf	___flmul@prod+1,f
  2369  02B2  0DD0               	rlf	___flmul@prod+2,f
  2370  02B3  0DD1               	rlf	___flmul@prod+3,f
  2371  02B4  0BC2               	decfsz	??___flmul,f
  2372  02B5  2AAF               	goto	u254_25
  2373  02B6                     i1l1765:
  2374  02B6  1FCB               	btfss	___flmul@grs+3,7
  2375  02B7  2AB9               	goto	u255_21
  2376  02B8  2ABA               	goto	u255_20
  2377  02B9                     u255_21:
  2378  02B9  2ABB               	goto	i1l1769
  2379  02BA                     u255_20:
  2380  02BA                     i1l1767:
  2381  02BA  144E               	bsf	___flmul@prod,0
  2382  02BB                     i1l1769:
  2383  02BB  3001               	movlw	1
  2384  02BC  00C2               	movwf	??___flmul
  2385  02BD                     u256_25:
  2386  02BD  1003               	clrc
  2387  02BE  0DC8               	rlf	___flmul@grs,f
  2388  02BF  0DC9               	rlf	___flmul@grs+1,f
  2389  02C0  0DCA               	rlf	___flmul@grs+2,f
  2390  02C1  0DCB               	rlf	___flmul@grs+3,f
  2391  02C2  0BC2               	decfsz	??___flmul,f
  2392  02C3  2ABD               	goto	u256_25
  2393  02C4                     i1l1771:
  2394  02C4  30FF               	movlw	255
  2395  02C5  07D2               	addwf	___flmul@temp,f
  2396  02C6  1803               	skipnc
  2397  02C7  0AD3               	incf	___flmul@temp+1,f
  2398  02C8  30FF               	movlw	255
  2399  02C9  07D3               	addwf	___flmul@temp+1,f
  2400  02CA                     i1l1773:
  2401  02CA  1FD0               	btfss	___flmul@prod+2,7
  2402  02CB  2ACD               	goto	u257_21
  2403  02CC  2ACE               	goto	u257_20
  2404  02CD                     u257_21:
  2405  02CD  2AAD               	goto	i1l1763
  2406  02CE                     u257_20:
  2407  02CE                     i1l1775:
  2408  02CE  01CC               	clrf	___flmul@aexp
  2409  02CF                     i1l1777:
  2410  02CF  1FCB               	btfss	___flmul@grs+3,7
  2411  02D0  2AD2               	goto	u258_21
  2412  02D1  2AD3               	goto	u258_20
  2413  02D2                     u258_21:
  2414  02D2  2AEF               	goto	i1l1785
  2415  02D3                     u258_20:
  2416  02D3                     i1l1779:
  2417  02D3  30FF               	movlw	255
  2418  02D4  0548               	andwf	___flmul@grs,w
  2419  02D5  00C2               	movwf	??___flmul
  2420  02D6  30FF               	movlw	255
  2421  02D7  0549               	andwf	___flmul@grs+1,w
  2422  02D8  00C3               	movwf	??___flmul+1
  2423  02D9  30FF               	movlw	255
  2424  02DA  054A               	andwf	___flmul@grs+2,w
  2425  02DB  00C4               	movwf	??___flmul+2
  2426  02DC  307F               	movlw	127
  2427  02DD  054B               	andwf	___flmul@grs+3,w
  2428  02DE  00C5               	movwf	??___flmul+3
  2429  02DF  0845               	movf	??___flmul+3,w
  2430  02E0  0444               	iorwf	??___flmul+2,w
  2431  02E1  0443               	iorwf	??___flmul+1,w
  2432  02E2  0442               	iorwf	??___flmul,w
  2433  02E3  1903               	skipnz
  2434  02E4  2AE6               	goto	u259_21
  2435  02E5  2AE7               	goto	u259_20
  2436  02E6                     u259_21:
  2437  02E6  2AEA               	goto	i1l550
  2438  02E7                     u259_20:
  2439  02E7                     i1l1781:
  2440  02E7  01CC               	clrf	___flmul@aexp
  2441  02E8  0ACC               	incf	___flmul@aexp,f
  2442  02E9  2AEF               	goto	i1l1785
  2443  02EA                     i1l550:
  2444  02EA  1C4E               	btfss	___flmul@prod,0
  2445  02EB  2AED               	goto	u260_21
  2446  02EC  2AEE               	goto	u260_20
  2447  02ED                     u260_21:
  2448  02ED  2AEF               	goto	i1l1785
  2449  02EE                     u260_20:
  2450  02EE  2AE7               	goto	i1l1781
  2451  02EF                     i1l1785:
  2452  02EF  084C               	movf	___flmul@aexp,w
  2453  02F0  1903               	btfsc	3,2
  2454  02F1  2AF3               	goto	u261_21
  2455  02F2  2AF4               	goto	u261_20
  2456  02F3                     u261_21:
  2457  02F3  2B25               	goto	i1l1795
  2458  02F4                     u261_20:
  2459  02F4                     i1l1787:
  2460  02F4  3001               	movlw	1
  2461  02F5  07CE               	addwf	___flmul@prod,f
  2462  02F6  3000               	movlw	0
  2463  02F7  1803               	skipnc
  2464  02F8  3001               	movlw	1
  2465  02F9  07CF               	addwf	___flmul@prod+1,f
  2466  02FA  3000               	movlw	0
  2467  02FB  1803               	skipnc
  2468  02FC  3001               	movlw	1
  2469  02FD  07D0               	addwf	___flmul@prod+2,f
  2470  02FE  3000               	movlw	0
  2471  02FF  1803               	skipnc
  2472  0300  3001               	movlw	1
  2473  0301  07D1               	addwf	___flmul@prod+3,f
  2474  0302                     i1l1789:
  2475  0302  1C51               	btfss	___flmul@prod+3,0
  2476  0303  2B05               	goto	u262_21
  2477  0304  2B06               	goto	u262_20
  2478  0305                     u262_21:
  2479  0305  2B25               	goto	i1l1795
  2480  0306                     u262_20:
  2481  0306                     i1l1791:
  2482  0306  084E               	movf	___flmul@prod,w
  2483  0307  00C2               	movwf	??___flmul
  2484  0308  084F               	movf	___flmul@prod+1,w
  2485  0309  00C3               	movwf	??___flmul+1
  2486  030A  0850               	movf	___flmul@prod+2,w
  2487  030B  00C4               	movwf	??___flmul+2
  2488  030C  0851               	movf	___flmul@prod+3,w
  2489  030D  00C5               	movwf	??___flmul+3
  2490  030E  3001               	movlw	1
  2491  030F  00C6               	movwf	??___flmul+4
  2492  0310                     u263_25:
  2493  0310  0D45               	rlf	??___flmul+3,w
  2494  0311  0CC5               	rrf	??___flmul+3,f
  2495  0312  0CC4               	rrf	??___flmul+2,f
  2496  0313  0CC3               	rrf	??___flmul+1,f
  2497  0314  0CC2               	rrf	??___flmul,f
  2498  0315                     u263_20:
  2499  0315  0BC6               	decfsz	??___flmul+4,f
  2500  0316  2B10               	goto	u263_25
  2501  0317  0845               	movf	??___flmul+3,w
  2502  0318  00D1               	movwf	___flmul@prod+3
  2503  0319  0844               	movf	??___flmul+2,w
  2504  031A  00D0               	movwf	___flmul@prod+2
  2505  031B  0843               	movf	??___flmul+1,w
  2506  031C  00CF               	movwf	___flmul@prod+1
  2507  031D  0842               	movf	??___flmul,w
  2508  031E  00CE               	movwf	___flmul@prod
  2509  031F                     i1l1793:
  2510  031F  3001               	movlw	1
  2511  0320  07D2               	addwf	___flmul@temp,f
  2512  0321  1803               	skipnc
  2513  0322  0AD3               	incf	___flmul@temp+1,f
  2514  0323  3000               	movlw	0
  2515  0324  07D3               	addwf	___flmul@temp+1,f
  2516  0325                     i1l1795:
  2517  0325  0853               	movf	___flmul@temp+1,w
  2518  0326  3A80               	xorlw	128
  2519  0327  00FF               	movwf	btemp+1
  2520  0328  3080               	movlw	128
  2521  0329  027F               	subwf	btemp+1,w
  2522  032A  1D03               	skipz
  2523  032B  2B2E               	goto	u264_25
  2524  032C  30FF               	movlw	255
  2525  032D  0252               	subwf	___flmul@temp,w
  2526  032E                     u264_25:
  2527  032E  1C03               	skipc
  2528  032F  2B31               	goto	u264_21
  2529  0330  2B32               	goto	u264_20
  2530  0331                     u264_21:
  2531  0331  2B3D               	goto	i1l1799
  2532  0332                     u264_20:
  2533  0332                     i1l1797:
  2534  0332  307F               	movlw	127
  2535  0333  1283               	bcf	3,5	;RP0=0, select bank0
  2536  0334  1303               	bcf	3,6	;RP1=0, select bank0
  2537  0335  00D1               	movwf	___flmul@prod+3
  2538  0336  3080               	movlw	128
  2539  0337  00D0               	movwf	___flmul@prod+2
  2540  0338  3000               	movlw	0
  2541  0339  00CF               	movwf	___flmul@prod+1
  2542  033A  3000               	movlw	0
  2543  033B  00CE               	movwf	___flmul@prod
  2544  033C  2B72               	goto	i1l556
  2545  033D                     i1l1799:
  2546  033D  1283               	bcf	3,5	;RP0=0, select bank0
  2547  033E  1303               	bcf	3,6	;RP1=0, select bank0
  2548  033F  0853               	movf	___flmul@temp+1,w
  2549  0340  3A80               	xorlw	128
  2550  0341  00FF               	movwf	btemp+1
  2551  0342  3080               	movlw	128
  2552  0343  027F               	subwf	btemp+1,w
  2553  0344  1D03               	skipz
  2554  0345  2B48               	goto	u265_25
  2555  0346  3001               	movlw	1
  2556  0347  0252               	subwf	___flmul@temp,w
  2557  0348                     u265_25:
  2558  0348  1803               	skipnc
  2559  0349  2B4B               	goto	u265_21
  2560  034A  2B4C               	goto	u265_20
  2561  034B                     u265_21:
  2562  034B  2B58               	goto	i1l1805
  2563  034C                     u265_20:
  2564  034C                     i1l1801:
  2565  034C  3000               	movlw	0
  2566  034D  1283               	bcf	3,5	;RP0=0, select bank0
  2567  034E  1303               	bcf	3,6	;RP1=0, select bank0
  2568  034F  00D1               	movwf	___flmul@prod+3
  2569  0350  3000               	movlw	0
  2570  0351  00D0               	movwf	___flmul@prod+2
  2571  0352  3000               	movlw	0
  2572  0353  00CF               	movwf	___flmul@prod+1
  2573  0354  3000               	movlw	0
  2574  0355  00CE               	movwf	___flmul@prod
  2575  0356                     i1l1803:
  2576  0356  01C7               	clrf	___flmul@sign
  2577  0357  2B72               	goto	i1l556
  2578  0358                     i1l1805:
  2579  0358  1283               	bcf	3,5	;RP0=0, select bank0
  2580  0359  1303               	bcf	3,6	;RP1=0, select bank0
  2581  035A  0852               	movf	___flmul@temp,w
  2582  035B  00C2               	movwf	??___flmul
  2583  035C  0842               	movf	??___flmul,w
  2584  035D  00CD               	movwf	___flmul@bexp
  2585  035E  30FF               	movlw	255
  2586  035F  05CE               	andwf	___flmul@prod,f
  2587  0360  30FF               	movlw	255
  2588  0361  05CF               	andwf	___flmul@prod+1,f
  2589  0362  307F               	movlw	127
  2590  0363  05D0               	andwf	___flmul@prod+2,f
  2591  0364  3000               	movlw	0
  2592  0365  05D1               	andwf	___flmul@prod+3,f
  2593  0366                     i1l1807:
  2594  0366  1C4D               	btfss	___flmul@bexp,0
  2595  0367  2B69               	goto	u266_21
  2596  0368  2B6A               	goto	u266_20
  2597  0369                     u266_21:
  2598  0369  2B6B               	goto	i1l1811
  2599  036A                     u266_20:
  2600  036A                     i1l1809:
  2601  036A  17D0               	bsf	___flmul@prod+2,7
  2602  036B                     i1l1811:
  2603  036B  084D               	movf	___flmul@bexp,w
  2604  036C  00C2               	movwf	??___flmul
  2605  036D  1003               	clrc
  2606  036E  0C42               	rrf	??___flmul,w
  2607  036F  00C3               	movwf	??___flmul+1
  2608  0370  0843               	movf	??___flmul+1,w
  2609  0371  00D1               	movwf	___flmul@prod+3
  2610  0372                     i1l556:
  2611  0372  0847               	movf	___flmul@sign,w
  2612  0373  00C2               	movwf	??___flmul
  2613  0374  0842               	movf	??___flmul,w
  2614  0375  04D1               	iorwf	___flmul@prod+3,f
  2615  0376                     i1l1813:
  2616  0376  0851               	movf	___flmul@prod+3,w
  2617  0377  00BD               	movwf	?___flmul+3
  2618  0378  0850               	movf	___flmul@prod+2,w
  2619  0379  00BC               	movwf	?___flmul+2
  2620  037A  084F               	movf	___flmul@prod+1,w
  2621  037B  00BB               	movwf	?___flmul+1
  2622  037C  084E               	movf	___flmul@prod,w
  2623  037D  00BA               	movwf	?___flmul
  2624  037E                     i1l544:
  2625  037E  0008               	return
  2626  037F                     __end_of___flmul:
  2627                           
  2628                           	psect	text7
  2629  0D3B                     __ptext7:	
  2630 ;; *************** function __Umul8_16 *****************
  2631 ;; Defined at:
  2632 ;;		line 4 in file "C:\Program Files\Microchip\xc8\v2.35\pic\sources\c90\common\Umul8_16.c"
  2633 ;; Parameters:    Size  Location     Type
  2634 ;;  multiplier      1    wreg     unsigned char 
  2635 ;;  multiplicand    1    0[COMMON] unsigned char 
  2636 ;; Auto vars:     Size  Location     Type
  2637 ;;  multiplier      1    8[COMMON] unsigned char 
  2638 ;;  word_mpld       2    6[COMMON] unsigned int 
  2639 ;;  product         2    4[COMMON] unsigned int 
  2640 ;; Return value:  Size  Location     Type
  2641 ;;                  2    0[COMMON] unsigned int 
  2642 ;; Registers used:
  2643 ;;		wreg, status,2, status,0
  2644 ;; Tracked objects:
  2645 ;;		On entry : 0/0
  2646 ;;		On exit  : 0/0
  2647 ;;		Unchanged: 0/0
  2648 ;; Data sizes:     COMMON   BANK0   BANK1   BANK3   BANK2
  2649 ;;      Params:         2       0       0       0       0
  2650 ;;      Locals:         5       0       0       0       0
  2651 ;;      Temps:          2       0       0       0       0
  2652 ;;      Totals:         9       0       0       0       0
  2653 ;;Total ram usage:        9 bytes
  2654 ;; Hardware stack levels used: 1
  2655 ;; This function calls:
  2656 ;;		Nothing
  2657 ;; This function is called by:
  2658 ;;		___flmul
  2659 ;; This function uses a non-reentrant model
  2660 ;;
  2661                           
  2662  0D3B                     __Umul8_16:	
  2663                           ;psect for function __Umul8_16
  2664                           
  2665                           
  2666                           ;incstack = 0
  2667                           ; Regs used in __Umul8_16: [wreg+status,2+status,0]
  2668                           ;__Umul8_16@multiplier stored from wreg
  2669  0D3B  00F8               	movwf	__Umul8_16@multiplier
  2670  0D3C                     i1l1291:
  2671  0D3C  01F4               	clrf	__Umul8_16@product
  2672  0D3D  01F5               	clrf	__Umul8_16@product+1
  2673  0D3E                     i1l1293:
  2674  0D3E  0870               	movf	__Umul8_16@multiplicand,w
  2675  0D3F  00F2               	movwf	??__Umul8_16
  2676  0D40  01F3               	clrf	??__Umul8_16+1
  2677  0D41  0872               	movf	??__Umul8_16,w
  2678  0D42  00F6               	movwf	__Umul8_16@word_mpld
  2679  0D43  0873               	movf	??__Umul8_16+1,w
  2680  0D44  00F7               	movwf	__Umul8_16@word_mpld+1
  2681  0D45                     i1l1295:
  2682  0D45  1C78               	btfss	__Umul8_16@multiplier,0
  2683  0D46  2D48               	goto	u142_21
  2684  0D47  2D49               	goto	u142_20
  2685  0D48                     u142_21:
  2686  0D48  2D4F               	goto	i1l563
  2687  0D49                     u142_20:
  2688  0D49                     i1l1297:
  2689  0D49  0876               	movf	__Umul8_16@word_mpld,w
  2690  0D4A  07F4               	addwf	__Umul8_16@product,f
  2691  0D4B  1803               	skipnc
  2692  0D4C  0AF5               	incf	__Umul8_16@product+1,f
  2693  0D4D  0877               	movf	__Umul8_16@word_mpld+1,w
  2694  0D4E  07F5               	addwf	__Umul8_16@product+1,f
  2695  0D4F                     i1l563:
  2696  0D4F  3001               	movlw	1
  2697  0D50                     u143_25:
  2698  0D50  1003               	clrc
  2699  0D51  0DF6               	rlf	__Umul8_16@word_mpld,f
  2700  0D52  0DF7               	rlf	__Umul8_16@word_mpld+1,f
  2701  0D53  3EFF               	addlw	-1
  2702  0D54  1D03               	skipz
  2703  0D55  2D50               	goto	u143_25
  2704  0D56  1003               	clrc
  2705  0D57  0CF8               	rrf	__Umul8_16@multiplier,f
  2706  0D58                     i1l1299:
  2707  0D58  0878               	movf	__Umul8_16@multiplier,w
  2708  0D59  1D03               	btfss	3,2
  2709  0D5A  2D5C               	goto	u144_21
  2710  0D5B  2D5D               	goto	u144_20
  2711  0D5C                     u144_21:
  2712  0D5C  2D45               	goto	i1l1295
  2713  0D5D                     u144_20:
  2714  0D5D                     i1l1301:
  2715  0D5D  0875               	movf	__Umul8_16@product+1,w
  2716  0D5E  00F1               	movwf	?__Umul8_16+1
  2717  0D5F  0874               	movf	__Umul8_16@product,w
  2718  0D60  00F0               	movwf	?__Umul8_16
  2719  0D61                     i1l565:
  2720  0D61  0008               	return
  2721  0D62                     __end_of__Umul8_16:
  2722                           
  2723                           	psect	text8
  2724  0607                     __ptext8:	
  2725 ;; *************** function ___fldiv *****************
  2726 ;; Defined at:
  2727 ;;		line 8 in file "C:\Program Files\Microchip\xc8\v2.35\pic\sources\c90\common\sprcdiv.c"
  2728 ;; Parameters:    Size  Location     Type
  2729 ;;  a               4    0[BANK0 ] unsigned int 
  2730 ;;  b               4    4[BANK0 ] unsigned int 
  2731 ;; Auto vars:     Size  Location     Type
  2732 ;;  grs             4   20[BANK0 ] unsigned long 
  2733 ;;  rem             4   13[BANK0 ] unsigned long 
  2734 ;;  new_exp         2   18[BANK0 ] int 
  2735 ;;  aexp            1   25[BANK0 ] unsigned char 
  2736 ;;  bexp            1   24[BANK0 ] unsigned char 
  2737 ;;  sign            1   17[BANK0 ] unsigned char 
  2738 ;; Return value:  Size  Location     Type
  2739 ;;                  4    0[BANK0 ] unsigned char 
  2740 ;; Registers used:
  2741 ;;		wreg, status,2, status,0, btemp+1
  2742 ;; Tracked objects:
  2743 ;;		On entry : 0/0
  2744 ;;		On exit  : 0/0
  2745 ;;		Unchanged: 0/0
  2746 ;; Data sizes:     COMMON   BANK0   BANK1   BANK3   BANK2
  2747 ;;      Params:         0       8       0       0       0
  2748 ;;      Locals:         0      13       0       0       0
  2749 ;;      Temps:          0       5       0       0       0
  2750 ;;      Totals:         0      26       0       0       0
  2751 ;;Total ram usage:       26 bytes
  2752 ;; Hardware stack levels used: 1
  2753 ;; This function calls:
  2754 ;;		Nothing
  2755 ;; This function is called by:
  2756 ;;		_interpol
  2757 ;; This function uses a non-reentrant model
  2758 ;;
  2759                           
  2760  0607                     ___fldiv:	
  2761                           ;psect for function ___fldiv
  2762                           
  2763  0607                     i1l1535:	
  2764                           ;incstack = 0
  2765                           ; Regs used in ___fldiv: [wreg+status,2+status,0+btemp+1]
  2766                           
  2767  0607  1283               	bcf	3,5	;RP0=0, select bank0
  2768  0608  1303               	bcf	3,6	;RP1=0, select bank0
  2769  0609  0827               	movf	___fldiv@b+3,w
  2770  060A  3980               	andlw	128
  2771  060B  00A8               	movwf	??___fldiv
  2772  060C  0828               	movf	??___fldiv,w
  2773  060D  00B1               	movwf	___fldiv@sign
  2774  060E                     i1l1537:
  2775  060E  0827               	movf	___fldiv@b+3,w
  2776  060F  00A8               	movwf	??___fldiv
  2777  0610  0728               	addwf	??___fldiv,w
  2778  0611  00A9               	movwf	??___fldiv+1
  2779  0612  0829               	movf	??___fldiv+1,w
  2780  0613  00B8               	movwf	___fldiv@bexp
  2781  0614                     i1l1539:
  2782  0614  1FA6               	btfss	___fldiv@b+2,7
  2783  0615  2E17               	goto	u201_21
  2784  0616  2E18               	goto	u201_20
  2785  0617                     u201_21:
  2786  0617  2E19               	goto	i1l1543
  2787  0618                     u201_20:
  2788  0618                     i1l1541:
  2789  0618  1438               	bsf	___fldiv@bexp,0
  2790  0619                     i1l1543:
  2791  0619  0838               	movf	___fldiv@bexp,w
  2792  061A  1903               	btfsc	3,2
  2793  061B  2E1D               	goto	u202_21
  2794  061C  2E1E               	goto	u202_20
  2795  061D                     u202_21:
  2796  061D  2E2E               	goto	i1l1553
  2797  061E                     u202_20:
  2798  061E                     i1l1545:
  2799  061E  0A38               	incf	___fldiv@bexp,w
  2800  061F  1D03               	btfss	3,2
  2801  0620  2E22               	goto	u203_21
  2802  0621  2E23               	goto	u203_20
  2803  0622                     u203_21:
  2804  0622  2E2B               	goto	i1l1549
  2805  0623                     u203_20:
  2806  0623                     i1l1547:
  2807  0623  3000               	movlw	0
  2808  0624  00A7               	movwf	___fldiv@b+3
  2809  0625  3000               	movlw	0
  2810  0626  00A6               	movwf	___fldiv@b+2
  2811  0627  3000               	movlw	0
  2812  0628  00A5               	movwf	___fldiv@b+1
  2813  0629  3000               	movlw	0
  2814  062A  00A4               	movwf	___fldiv@b
  2815  062B                     i1l1549:
  2816  062B  17A6               	bsf	___fldiv@b+2,7
  2817  062C                     i1l1551:
  2818  062C  01A7               	clrf	___fldiv@b+3
  2819  062D  2E36               	goto	i1l1555
  2820  062E                     i1l1553:
  2821  062E  3000               	movlw	0
  2822  062F  00A7               	movwf	___fldiv@b+3
  2823  0630  3000               	movlw	0
  2824  0631  00A6               	movwf	___fldiv@b+2
  2825  0632  3000               	movlw	0
  2826  0633  00A5               	movwf	___fldiv@b+1
  2827  0634  3000               	movlw	0
  2828  0635  00A4               	movwf	___fldiv@b
  2829  0636                     i1l1555:
  2830  0636  0823               	movf	___fldiv@a+3,w
  2831  0637  3980               	andlw	128
  2832  0638  00A8               	movwf	??___fldiv
  2833  0639  0828               	movf	??___fldiv,w
  2834  063A  06B1               	xorwf	___fldiv@sign,f
  2835  063B                     i1l1557:
  2836  063B  0823               	movf	___fldiv@a+3,w
  2837  063C  00A8               	movwf	??___fldiv
  2838  063D  0728               	addwf	??___fldiv,w
  2839  063E  00A9               	movwf	??___fldiv+1
  2840  063F  0829               	movf	??___fldiv+1,w
  2841  0640  00B9               	movwf	___fldiv@aexp
  2842  0641                     i1l1559:
  2843  0641  1FA2               	btfss	___fldiv@a+2,7
  2844  0642  2E44               	goto	u204_21
  2845  0643  2E45               	goto	u204_20
  2846  0644                     u204_21:
  2847  0644  2E46               	goto	i1l1563
  2848  0645                     u204_20:
  2849  0645                     i1l1561:
  2850  0645  1439               	bsf	___fldiv@aexp,0
  2851  0646                     i1l1563:
  2852  0646  0839               	movf	___fldiv@aexp,w
  2853  0647  1903               	btfsc	3,2
  2854  0648  2E4A               	goto	u205_21
  2855  0649  2E4B               	goto	u205_20
  2856  064A                     u205_21:
  2857  064A  2E5B               	goto	i1l1573
  2858  064B                     u205_20:
  2859  064B                     i1l1565:
  2860  064B  0A39               	incf	___fldiv@aexp,w
  2861  064C  1D03               	btfss	3,2
  2862  064D  2E4F               	goto	u206_21
  2863  064E  2E50               	goto	u206_20
  2864  064F                     u206_21:
  2865  064F  2E58               	goto	i1l1569
  2866  0650                     u206_20:
  2867  0650                     i1l1567:
  2868  0650  3000               	movlw	0
  2869  0651  00A3               	movwf	___fldiv@a+3
  2870  0652  3000               	movlw	0
  2871  0653  00A2               	movwf	___fldiv@a+2
  2872  0654  3000               	movlw	0
  2873  0655  00A1               	movwf	___fldiv@a+1
  2874  0656  3000               	movlw	0
  2875  0657  00A0               	movwf	___fldiv@a
  2876  0658                     i1l1569:
  2877  0658  17A2               	bsf	___fldiv@a+2,7
  2878  0659                     i1l1571:
  2879  0659  01A3               	clrf	___fldiv@a+3
  2880  065A  2E63               	goto	i1l504
  2881  065B                     i1l1573:
  2882  065B  3000               	movlw	0
  2883  065C  00A3               	movwf	___fldiv@a+3
  2884  065D  3000               	movlw	0
  2885  065E  00A2               	movwf	___fldiv@a+2
  2886  065F  3000               	movlw	0
  2887  0660  00A1               	movwf	___fldiv@a+1
  2888  0661  3000               	movlw	0
  2889  0662  00A0               	movwf	___fldiv@a
  2890  0663                     i1l504:
  2891  0663  0823               	movf	___fldiv@a+3,w
  2892  0664  0422               	iorwf	___fldiv@a+2,w
  2893  0665  0421               	iorwf	___fldiv@a+1,w
  2894  0666  0420               	iorwf	___fldiv@a,w
  2895  0667  1D03               	skipz
  2896  0668  2E6A               	goto	u207_21
  2897  0669  2E6B               	goto	u207_20
  2898  066A                     u207_21:
  2899  066A  2E84               	goto	i1l1583
  2900  066B                     u207_20:
  2901  066B                     i1l1575:
  2902  066B  3000               	movlw	0
  2903  066C  00A7               	movwf	___fldiv@b+3
  2904  066D  3000               	movlw	0
  2905  066E  00A6               	movwf	___fldiv@b+2
  2906  066F  3000               	movlw	0
  2907  0670  00A5               	movwf	___fldiv@b+1
  2908  0671  3000               	movlw	0
  2909  0672  00A4               	movwf	___fldiv@b
  2910  0673  3080               	movlw	128
  2911  0674  04A6               	iorwf	___fldiv@b+2,f
  2912  0675  307F               	movlw	127
  2913  0676  04A7               	iorwf	___fldiv@b+3,f
  2914  0677                     i1l1577:
  2915  0677  0831               	movf	___fldiv@sign,w
  2916  0678  00A8               	movwf	??___fldiv
  2917  0679  0828               	movf	??___fldiv,w
  2918  067A  04A7               	iorwf	___fldiv@b+3,f
  2919  067B                     i1l1579:
  2920  067B  0827               	movf	___fldiv@b+3,w
  2921  067C  00A3               	movwf	?___fldiv+3
  2922  067D  0826               	movf	___fldiv@b+2,w
  2923  067E  00A2               	movwf	?___fldiv+2
  2924  067F  0825               	movf	___fldiv@b+1,w
  2925  0680  00A1               	movwf	?___fldiv+1
  2926  0681  0824               	movf	___fldiv@b,w
  2927  0682  00A0               	movwf	?___fldiv
  2928  0683  2FE3               	goto	i1l506
  2929  0684                     i1l1583:
  2930  0684  0838               	movf	___fldiv@bexp,w
  2931  0685  1D03               	btfss	3,2
  2932  0686  2E88               	goto	u208_21
  2933  0687  2E89               	goto	u208_20
  2934  0688                     u208_21:
  2935  0688  2E92               	goto	i1l1589
  2936  0689                     u208_20:
  2937  0689                     i1l1585:
  2938  0689  3000               	movlw	0
  2939  068A  00A3               	movwf	?___fldiv+3
  2940  068B  3000               	movlw	0
  2941  068C  00A2               	movwf	?___fldiv+2
  2942  068D  3000               	movlw	0
  2943  068E  00A1               	movwf	?___fldiv+1
  2944  068F  3000               	movlw	0
  2945  0690  00A0               	movwf	?___fldiv
  2946  0691  2FE3               	goto	i1l506
  2947  0692                     i1l1589:
  2948  0692  0838               	movf	___fldiv@bexp,w
  2949  0693  00A8               	movwf	??___fldiv
  2950  0694  01A9               	clrf	??___fldiv+1
  2951  0695  0829               	movf	??___fldiv+1,w
  2952  0696  00AB               	movwf	??___fldiv+3
  2953  0697  0839               	movf	___fldiv@aexp,w
  2954  0698  0228               	subwf	??___fldiv,w
  2955  0699  00AA               	movwf	??___fldiv+2
  2956  069A  1C03               	skipc
  2957  069B  03AB               	decf	??___fldiv+3,f
  2958  069C  082A               	movf	??___fldiv+2,w
  2959  069D  3E7F               	addlw	127
  2960  069E  00B2               	movwf	___fldiv@new_exp
  2961  069F  082B               	movf	??___fldiv+3,w
  2962  06A0  1803               	skipnc
  2963  06A1  3E01               	addlw	1
  2964  06A2  3E00               	addlw	0
  2965  06A3  00B3               	movwf	___fldiv@new_exp+1
  2966  06A4                     i1l1591:
  2967  06A4  0827               	movf	___fldiv@b+3,w
  2968  06A5  00B0               	movwf	___fldiv@rem+3
  2969  06A6  0826               	movf	___fldiv@b+2,w
  2970  06A7  00AF               	movwf	___fldiv@rem+2
  2971  06A8  0825               	movf	___fldiv@b+1,w
  2972  06A9  00AE               	movwf	___fldiv@rem+1
  2973  06AA  0824               	movf	___fldiv@b,w
  2974  06AB  00AD               	movwf	___fldiv@rem
  2975  06AC                     i1l1593:
  2976  06AC  3000               	movlw	0
  2977  06AD  00A7               	movwf	___fldiv@b+3
  2978  06AE  3000               	movlw	0
  2979  06AF  00A6               	movwf	___fldiv@b+2
  2980  06B0  3000               	movlw	0
  2981  06B1  00A5               	movwf	___fldiv@b+1
  2982  06B2  3000               	movlw	0
  2983  06B3  00A4               	movwf	___fldiv@b
  2984  06B4                     i1l1595:
  2985  06B4  3000               	movlw	0
  2986  06B5  00B7               	movwf	___fldiv@grs+3
  2987  06B6  3000               	movlw	0
  2988  06B7  00B6               	movwf	___fldiv@grs+2
  2989  06B8  3000               	movlw	0
  2990  06B9  00B5               	movwf	___fldiv@grs+1
  2991  06BA  3000               	movlw	0
  2992  06BB  00B4               	movwf	___fldiv@grs
  2993  06BC                     i1l1597:
  2994  06BC  01B9               	clrf	___fldiv@aexp
  2995  06BD  2F08               	goto	i1l1617
  2996  06BE                     i1l1599:
  2997  06BE  0839               	movf	___fldiv@aexp,w
  2998  06BF  1903               	btfsc	3,2
  2999  06C0  2EC2               	goto	u209_21
  3000  06C1  2EC3               	goto	u209_20
  3001  06C2                     u209_21:
  3002  06C2  2EE3               	goto	i1l1609
  3003  06C3                     u209_20:
  3004  06C3                     i1l1601:
  3005  06C3  3001               	movlw	1
  3006  06C4  00A8               	movwf	??___fldiv
  3007  06C5                     u210_25:
  3008  06C5  1003               	clrc
  3009  06C6  0DAD               	rlf	___fldiv@rem,f
  3010  06C7  0DAE               	rlf	___fldiv@rem+1,f
  3011  06C8  0DAF               	rlf	___fldiv@rem+2,f
  3012  06C9  0DB0               	rlf	___fldiv@rem+3,f
  3013  06CA  0BA8               	decfsz	??___fldiv,f
  3014  06CB  2EC5               	goto	u210_25
  3015  06CC  3001               	movlw	1
  3016  06CD  00A8               	movwf	??___fldiv
  3017  06CE                     u211_25:
  3018  06CE  1003               	clrc
  3019  06CF  0DA4               	rlf	___fldiv@b,f
  3020  06D0  0DA5               	rlf	___fldiv@b+1,f
  3021  06D1  0DA6               	rlf	___fldiv@b+2,f
  3022  06D2  0DA7               	rlf	___fldiv@b+3,f
  3023  06D3  0BA8               	decfsz	??___fldiv,f
  3024  06D4  2ECE               	goto	u211_25
  3025  06D5                     i1l1603:
  3026  06D5  1FB7               	btfss	___fldiv@grs+3,7
  3027  06D6  2ED8               	goto	u212_21
  3028  06D7  2ED9               	goto	u212_20
  3029  06D8                     u212_21:
  3030  06D8  2EDA               	goto	i1l1607
  3031  06D9                     u212_20:
  3032  06D9                     i1l1605:
  3033  06D9  1424               	bsf	___fldiv@b,0
  3034  06DA                     i1l1607:
  3035  06DA  3001               	movlw	1
  3036  06DB  00A8               	movwf	??___fldiv
  3037  06DC                     u213_25:
  3038  06DC  1003               	clrc
  3039  06DD  0DB4               	rlf	___fldiv@grs,f
  3040  06DE  0DB5               	rlf	___fldiv@grs+1,f
  3041  06DF  0DB6               	rlf	___fldiv@grs+2,f
  3042  06E0  0DB7               	rlf	___fldiv@grs+3,f
  3043  06E1  0BA8               	decfsz	??___fldiv,f
  3044  06E2  2EDC               	goto	u213_25
  3045  06E3                     i1l1609:
  3046  06E3  0823               	movf	___fldiv@a+3,w
  3047  06E4  0230               	subwf	___fldiv@rem+3,w
  3048  06E5  1D03               	skipz
  3049  06E6  2EF1               	goto	u214_25
  3050  06E7  0822               	movf	___fldiv@a+2,w
  3051  06E8  022F               	subwf	___fldiv@rem+2,w
  3052  06E9  1D03               	skipz
  3053  06EA  2EF1               	goto	u214_25
  3054  06EB  0821               	movf	___fldiv@a+1,w
  3055  06EC  022E               	subwf	___fldiv@rem+1,w
  3056  06ED  1D03               	skipz
  3057  06EE  2EF1               	goto	u214_25
  3058  06EF  0820               	movf	___fldiv@a,w
  3059  06F0  022D               	subwf	___fldiv@rem,w
  3060  06F1                     u214_25:
  3061  06F1  1C03               	skipc
  3062  06F2  2EF4               	goto	u214_21
  3063  06F3  2EF5               	goto	u214_20
  3064  06F4                     u214_21:
  3065  06F4  2F04               	goto	i1l1615
  3066  06F5                     u214_20:
  3067  06F5                     i1l1611:
  3068  06F5  1737               	bsf	___fldiv@grs+3,6
  3069  06F6                     i1l1613:
  3070  06F6  0820               	movf	___fldiv@a,w
  3071  06F7  02AD               	subwf	___fldiv@rem,f
  3072  06F8  0821               	movf	___fldiv@a+1,w
  3073  06F9  1C03               	skipc
  3074  06FA  0F21               	incfsz	___fldiv@a+1,w
  3075  06FB  02AE               	subwf	___fldiv@rem+1,f
  3076  06FC  0822               	movf	___fldiv@a+2,w
  3077  06FD  1C03               	skipc
  3078  06FE  0F22               	incfsz	___fldiv@a+2,w
  3079  06FF  02AF               	subwf	___fldiv@rem+2,f
  3080  0700  0823               	movf	___fldiv@a+3,w
  3081  0701  1C03               	skipc
  3082  0702  0F23               	incfsz	___fldiv@a+3,w
  3083  0703  02B0               	subwf	___fldiv@rem+3,f
  3084  0704                     i1l1615:
  3085  0704  3001               	movlw	1
  3086  0705  00A8               	movwf	??___fldiv
  3087  0706  0828               	movf	??___fldiv,w
  3088  0707  07B9               	addwf	___fldiv@aexp,f
  3089  0708                     i1l1617:
  3090  0708  301A               	movlw	26
  3091  0709  0239               	subwf	___fldiv@aexp,w
  3092  070A  1C03               	skipc
  3093  070B  2F0D               	goto	u215_21
  3094  070C  2F0E               	goto	u215_20
  3095  070D                     u215_21:
  3096  070D  2EBE               	goto	i1l1599
  3097  070E                     u215_20:
  3098  070E                     i1l1619:
  3099  070E  0830               	movf	___fldiv@rem+3,w
  3100  070F  042F               	iorwf	___fldiv@rem+2,w
  3101  0710  042E               	iorwf	___fldiv@rem+1,w
  3102  0711  042D               	iorwf	___fldiv@rem,w
  3103  0712  1903               	skipnz
  3104  0713  2F15               	goto	u216_21
  3105  0714  2F16               	goto	u216_20
  3106  0715                     u216_21:
  3107  0715  2F35               	goto	i1l1633
  3108  0716                     u216_20:
  3109  0716                     i1l1621:
  3110  0716  1434               	bsf	___fldiv@grs,0
  3111  0717  2F35               	goto	i1l1633
  3112  0718                     i1l1623:
  3113  0718  3001               	movlw	1
  3114  0719  00A8               	movwf	??___fldiv
  3115  071A                     u217_25:
  3116  071A  1003               	clrc
  3117  071B  0DA4               	rlf	___fldiv@b,f
  3118  071C  0DA5               	rlf	___fldiv@b+1,f
  3119  071D  0DA6               	rlf	___fldiv@b+2,f
  3120  071E  0DA7               	rlf	___fldiv@b+3,f
  3121  071F  0BA8               	decfsz	??___fldiv,f
  3122  0720  2F1A               	goto	u217_25
  3123  0721                     i1l1625:
  3124  0721  1FB7               	btfss	___fldiv@grs+3,7
  3125  0722  2F24               	goto	u218_21
  3126  0723  2F25               	goto	u218_20
  3127  0724                     u218_21:
  3128  0724  2F26               	goto	i1l1629
  3129  0725                     u218_20:
  3130  0725                     i1l1627:
  3131  0725  1424               	bsf	___fldiv@b,0
  3132  0726                     i1l1629:
  3133  0726  3001               	movlw	1
  3134  0727  00A8               	movwf	??___fldiv
  3135  0728                     u219_25:
  3136  0728  1003               	clrc
  3137  0729  0DB4               	rlf	___fldiv@grs,f
  3138  072A  0DB5               	rlf	___fldiv@grs+1,f
  3139  072B  0DB6               	rlf	___fldiv@grs+2,f
  3140  072C  0DB7               	rlf	___fldiv@grs+3,f
  3141  072D  0BA8               	decfsz	??___fldiv,f
  3142  072E  2F28               	goto	u219_25
  3143  072F                     i1l1631:
  3144  072F  30FF               	movlw	255
  3145  0730  07B2               	addwf	___fldiv@new_exp,f
  3146  0731  1803               	skipnc
  3147  0732  0AB3               	incf	___fldiv@new_exp+1,f
  3148  0733  30FF               	movlw	255
  3149  0734  07B3               	addwf	___fldiv@new_exp+1,f
  3150  0735                     i1l1633:
  3151  0735  1FA6               	btfss	___fldiv@b+2,7
  3152  0736  2F38               	goto	u220_21
  3153  0737  2F39               	goto	u220_20
  3154  0738                     u220_21:
  3155  0738  2F18               	goto	i1l1623
  3156  0739                     u220_20:
  3157  0739                     i1l1635:
  3158  0739  01B9               	clrf	___fldiv@aexp
  3159  073A                     i1l1637:
  3160  073A  1FB7               	btfss	___fldiv@grs+3,7
  3161  073B  2F3D               	goto	u221_21
  3162  073C  2F3E               	goto	u221_20
  3163  073D                     u221_21:
  3164  073D  2F5A               	goto	i1l1645
  3165  073E                     u221_20:
  3166  073E                     i1l1639:
  3167  073E  30FF               	movlw	255
  3168  073F  0534               	andwf	___fldiv@grs,w
  3169  0740  00A8               	movwf	??___fldiv
  3170  0741  30FF               	movlw	255
  3171  0742  0535               	andwf	___fldiv@grs+1,w
  3172  0743  00A9               	movwf	??___fldiv+1
  3173  0744  30FF               	movlw	255
  3174  0745  0536               	andwf	___fldiv@grs+2,w
  3175  0746  00AA               	movwf	??___fldiv+2
  3176  0747  307F               	movlw	127
  3177  0748  0537               	andwf	___fldiv@grs+3,w
  3178  0749  00AB               	movwf	??___fldiv+3
  3179  074A  082B               	movf	??___fldiv+3,w
  3180  074B  042A               	iorwf	??___fldiv+2,w
  3181  074C  0429               	iorwf	??___fldiv+1,w
  3182  074D  0428               	iorwf	??___fldiv,w
  3183  074E  1903               	skipnz
  3184  074F  2F51               	goto	u222_21
  3185  0750  2F52               	goto	u222_20
  3186  0751                     u222_21:
  3187  0751  2F55               	goto	i1l520
  3188  0752                     u222_20:
  3189  0752                     i1l1641:
  3190  0752  01B9               	clrf	___fldiv@aexp
  3191  0753  0AB9               	incf	___fldiv@aexp,f
  3192  0754  2F5A               	goto	i1l1645
  3193  0755                     i1l520:
  3194  0755  1C24               	btfss	___fldiv@b,0
  3195  0756  2F58               	goto	u223_21
  3196  0757  2F59               	goto	u223_20
  3197  0758                     u223_21:
  3198  0758  2F5A               	goto	i1l1645
  3199  0759                     u223_20:
  3200  0759  2F52               	goto	i1l1641
  3201  075A                     i1l1645:
  3202  075A  0839               	movf	___fldiv@aexp,w
  3203  075B  1903               	btfsc	3,2
  3204  075C  2F5E               	goto	u224_21
  3205  075D  2F5F               	goto	u224_20
  3206  075E                     u224_21:
  3207  075E  2F90               	goto	i1l1655
  3208  075F                     u224_20:
  3209  075F                     i1l1647:
  3210  075F  3001               	movlw	1
  3211  0760  07A4               	addwf	___fldiv@b,f
  3212  0761  3000               	movlw	0
  3213  0762  1803               	skipnc
  3214  0763  3001               	movlw	1
  3215  0764  07A5               	addwf	___fldiv@b+1,f
  3216  0765  3000               	movlw	0
  3217  0766  1803               	skipnc
  3218  0767  3001               	movlw	1
  3219  0768  07A6               	addwf	___fldiv@b+2,f
  3220  0769  3000               	movlw	0
  3221  076A  1803               	skipnc
  3222  076B  3001               	movlw	1
  3223  076C  07A7               	addwf	___fldiv@b+3,f
  3224  076D                     i1l1649:
  3225  076D  1C27               	btfss	___fldiv@b+3,0
  3226  076E  2F70               	goto	u225_21
  3227  076F  2F71               	goto	u225_20
  3228  0770                     u225_21:
  3229  0770  2F90               	goto	i1l1655
  3230  0771                     u225_20:
  3231  0771                     i1l1651:
  3232  0771  0824               	movf	___fldiv@b,w
  3233  0772  00A8               	movwf	??___fldiv
  3234  0773  0825               	movf	___fldiv@b+1,w
  3235  0774  00A9               	movwf	??___fldiv+1
  3236  0775  0826               	movf	___fldiv@b+2,w
  3237  0776  00AA               	movwf	??___fldiv+2
  3238  0777  0827               	movf	___fldiv@b+3,w
  3239  0778  00AB               	movwf	??___fldiv+3
  3240  0779  3001               	movlw	1
  3241  077A  00AC               	movwf	??___fldiv+4
  3242  077B                     u226_25:
  3243  077B  0D2B               	rlf	??___fldiv+3,w
  3244  077C  0CAB               	rrf	??___fldiv+3,f
  3245  077D  0CAA               	rrf	??___fldiv+2,f
  3246  077E  0CA9               	rrf	??___fldiv+1,f
  3247  077F  0CA8               	rrf	??___fldiv,f
  3248  0780                     u226_20:
  3249  0780  0BAC               	decfsz	??___fldiv+4,f
  3250  0781  2F7B               	goto	u226_25
  3251  0782  082B               	movf	??___fldiv+3,w
  3252  0783  00A7               	movwf	___fldiv@b+3
  3253  0784  082A               	movf	??___fldiv+2,w
  3254  0785  00A6               	movwf	___fldiv@b+2
  3255  0786  0829               	movf	??___fldiv+1,w
  3256  0787  00A5               	movwf	___fldiv@b+1
  3257  0788  0828               	movf	??___fldiv,w
  3258  0789  00A4               	movwf	___fldiv@b
  3259  078A                     i1l1653:
  3260  078A  3001               	movlw	1
  3261  078B  07B2               	addwf	___fldiv@new_exp,f
  3262  078C  1803               	skipnc
  3263  078D  0AB3               	incf	___fldiv@new_exp+1,f
  3264  078E  3000               	movlw	0
  3265  078F  07B3               	addwf	___fldiv@new_exp+1,f
  3266  0790                     i1l1655:
  3267  0790  0833               	movf	___fldiv@new_exp+1,w
  3268  0791  3A80               	xorlw	128
  3269  0792  00FF               	movwf	btemp+1
  3270  0793  3080               	movlw	128
  3271  0794  027F               	subwf	btemp+1,w
  3272  0795  1D03               	skipz
  3273  0796  2F99               	goto	u227_25
  3274  0797  30FF               	movlw	255
  3275  0798  0232               	subwf	___fldiv@new_exp,w
  3276  0799                     u227_25:
  3277  0799  1C03               	skipc
  3278  079A  2F9C               	goto	u227_21
  3279  079B  2F9D               	goto	u227_20
  3280  079C                     u227_21:
  3281  079C  2FAB               	goto	i1l1659
  3282  079D                     u227_20:
  3283  079D                     i1l1657:
  3284  079D  30FF               	movlw	255
  3285  079E  1283               	bcf	3,5	;RP0=0, select bank0
  3286  079F  1303               	bcf	3,6	;RP1=0, select bank0
  3287  07A0  00B2               	movwf	___fldiv@new_exp
  3288  07A1  3000               	movlw	0
  3289  07A2  00B3               	movwf	___fldiv@new_exp+1
  3290  07A3  3000               	movlw	0
  3291  07A4  00A7               	movwf	___fldiv@b+3
  3292  07A5  3000               	movlw	0
  3293  07A6  00A6               	movwf	___fldiv@b+2
  3294  07A7  3000               	movlw	0
  3295  07A8  00A5               	movwf	___fldiv@b+1
  3296  07A9  3000               	movlw	0
  3297  07AA  00A4               	movwf	___fldiv@b
  3298  07AB                     i1l1659:
  3299  07AB  1283               	bcf	3,5	;RP0=0, select bank0
  3300  07AC  1303               	bcf	3,6	;RP1=0, select bank0
  3301  07AD  0833               	movf	___fldiv@new_exp+1,w
  3302  07AE  3A80               	xorlw	128
  3303  07AF  00FF               	movwf	btemp+1
  3304  07B0  3080               	movlw	128
  3305  07B1  027F               	subwf	btemp+1,w
  3306  07B2  1D03               	skipz
  3307  07B3  2FB6               	goto	u228_25
  3308  07B4  3001               	movlw	1
  3309  07B5  0232               	subwf	___fldiv@new_exp,w
  3310  07B6                     u228_25:
  3311  07B6  1803               	skipnc
  3312  07B7  2FB9               	goto	u228_21
  3313  07B8  2FBA               	goto	u228_20
  3314  07B9                     u228_21:
  3315  07B9  2FC7               	goto	i1l526
  3316  07BA                     u228_20:
  3317  07BA                     i1l1661:
  3318  07BA  1283               	bcf	3,5	;RP0=0, select bank0
  3319  07BB  1303               	bcf	3,6	;RP1=0, select bank0
  3320  07BC  01B2               	clrf	___fldiv@new_exp
  3321  07BD  01B3               	clrf	___fldiv@new_exp+1
  3322  07BE                     i1l1663:
  3323  07BE  3000               	movlw	0
  3324  07BF  00A7               	movwf	___fldiv@b+3
  3325  07C0  3000               	movlw	0
  3326  07C1  00A6               	movwf	___fldiv@b+2
  3327  07C2  3000               	movlw	0
  3328  07C3  00A5               	movwf	___fldiv@b+1
  3329  07C4  3000               	movlw	0
  3330  07C5  00A4               	movwf	___fldiv@b
  3331  07C6                     i1l1665:
  3332  07C6  01B1               	clrf	___fldiv@sign
  3333  07C7                     i1l526:
  3334  07C7  1283               	bcf	3,5	;RP0=0, select bank0
  3335  07C8  1303               	bcf	3,6	;RP1=0, select bank0
  3336  07C9  0832               	movf	___fldiv@new_exp,w
  3337  07CA  00A8               	movwf	??___fldiv
  3338  07CB  0828               	movf	??___fldiv,w
  3339  07CC  00B8               	movwf	___fldiv@bexp
  3340  07CD                     i1l1667:
  3341  07CD  1C38               	btfss	___fldiv@bexp,0
  3342  07CE  2FD0               	goto	u229_21
  3343  07CF  2FD1               	goto	u229_20
  3344  07D0                     u229_21:
  3345  07D0  2FD3               	goto	i1l1671
  3346  07D1                     u229_20:
  3347  07D1                     i1l1669:
  3348  07D1  17A6               	bsf	___fldiv@b+2,7
  3349  07D2  2FD7               	goto	i1l528
  3350  07D3                     i1l1671:
  3351  07D3  307F               	movlw	127
  3352  07D4  00A8               	movwf	??___fldiv
  3353  07D5  0828               	movf	??___fldiv,w
  3354  07D6  05A6               	andwf	___fldiv@b+2,f
  3355  07D7                     i1l528:
  3356  07D7  0838               	movf	___fldiv@bexp,w
  3357  07D8  00A8               	movwf	??___fldiv
  3358  07D9  1003               	clrc
  3359  07DA  0C28               	rrf	??___fldiv,w
  3360  07DB  00A9               	movwf	??___fldiv+1
  3361  07DC  0829               	movf	??___fldiv+1,w
  3362  07DD  00A7               	movwf	___fldiv@b+3
  3363  07DE  0831               	movf	___fldiv@sign,w
  3364  07DF  00A8               	movwf	??___fldiv
  3365  07E0  0828               	movf	??___fldiv,w
  3366  07E1  04A7               	iorwf	___fldiv@b+3,f
  3367  07E2  2E7B               	goto	i1l1579
  3368  07E3                     i1l506:
  3369  07E3  0008               	return
  3370  07E4                     __end_of___fldiv:
  3371                           
  3372                           	psect	text9
  3373  037F                     __ptext9:	
  3374 ;; *************** function ___fladd *****************
  3375 ;; Defined at:
  3376 ;;		line 10 in file "C:\Program Files\Microchip\xc8\v2.35\pic\sources\c90\common\sprcadd.c"
  3377 ;; Parameters:    Size  Location     Type
  3378 ;;  b               4   52[BANK0 ] unsigned char 
  3379 ;;  a               4   56[BANK0 ] unsigned char 
  3380 ;; Auto vars:     Size  Location     Type
  3381 ;;  grs             1   71[BANK0 ] unsigned char 
  3382 ;;  bexp            1   70[BANK0 ] unsigned char 
  3383 ;;  aexp            1   69[BANK0 ] unsigned char 
  3384 ;;  signs           1   68[BANK0 ] unsigned char 
  3385 ;; Return value:  Size  Location     Type
  3386 ;;                  4   52[BANK0 ] unsigned char 
  3387 ;; Registers used:
  3388 ;;		wreg, status,2, status,0, btemp+1
  3389 ;; Tracked objects:
  3390 ;;		On entry : 0/0
  3391 ;;		On exit  : 0/0
  3392 ;;		Unchanged: 0/0
  3393 ;; Data sizes:     COMMON   BANK0   BANK1   BANK3   BANK2
  3394 ;;      Params:         0       8       0       0       0
  3395 ;;      Locals:         0       4       0       0       0
  3396 ;;      Temps:          0       8       0       0       0
  3397 ;;      Totals:         0      20       0       0       0
  3398 ;;Total ram usage:       20 bytes
  3399 ;; Hardware stack levels used: 1
  3400 ;; This function calls:
  3401 ;;		Nothing
  3402 ;; This function is called by:
  3403 ;;		_interpol
  3404 ;; This function uses a non-reentrant model
  3405 ;;
  3406                           
  3407  037F                     ___fladd:	
  3408                           ;psect for function ___fladd
  3409                           
  3410  037F                     i1l1341:	
  3411                           ;incstack = 0
  3412                           ; Regs used in ___fladd: [wreg+status,2+status,0+btemp+1]
  3413                           
  3414  037F  1283               	bcf	3,5	;RP0=0, select bank0
  3415  0380  1303               	bcf	3,6	;RP1=0, select bank0
  3416  0381  0857               	movf	___fladd@b+3,w
  3417  0382  3980               	andlw	128
  3418  0383  00DC               	movwf	??___fladd
  3419  0384  085C               	movf	??___fladd,w
  3420  0385  00E4               	movwf	___fladd@signs
  3421  0386                     i1l1343:
  3422  0386  0857               	movf	___fladd@b+3,w
  3423  0387  00DC               	movwf	??___fladd
  3424  0388  075C               	addwf	??___fladd,w
  3425  0389  00DD               	movwf	??___fladd+1
  3426  038A  085D               	movf	??___fladd+1,w
  3427  038B  00E6               	movwf	___fladd@bexp
  3428  038C                     i1l1345:
  3429  038C  1FD6               	btfss	___fladd@b+2,7
  3430  038D  2B8F               	goto	u155_21
  3431  038E  2B90               	goto	u155_20
  3432  038F                     u155_21:
  3433  038F  2B91               	goto	i1l1349
  3434  0390                     u155_20:
  3435  0390                     i1l1347:
  3436  0390  1466               	bsf	___fladd@bexp,0
  3437  0391                     i1l1349:
  3438  0391  0866               	movf	___fladd@bexp,w
  3439  0392  1903               	btfsc	3,2
  3440  0393  2B95               	goto	u156_21
  3441  0394  2B96               	goto	u156_20
  3442  0395                     u156_21:
  3443  0395  2BA6               	goto	i1l1359
  3444  0396                     u156_20:
  3445  0396                     i1l1351:
  3446  0396  0A66               	incf	___fladd@bexp,w
  3447  0397  1D03               	btfss	3,2
  3448  0398  2B9A               	goto	u157_21
  3449  0399  2B9B               	goto	u157_20
  3450  039A                     u157_21:
  3451  039A  2BA3               	goto	i1l1355
  3452  039B                     u157_20:
  3453  039B                     i1l1353:
  3454  039B  3000               	movlw	0
  3455  039C  00D7               	movwf	___fladd@b+3
  3456  039D  3000               	movlw	0
  3457  039E  00D6               	movwf	___fladd@b+2
  3458  039F  3000               	movlw	0
  3459  03A0  00D5               	movwf	___fladd@b+1
  3460  03A1  3000               	movlw	0
  3461  03A2  00D4               	movwf	___fladd@b
  3462  03A3                     i1l1355:
  3463  03A3  17D6               	bsf	___fladd@b+2,7
  3464  03A4                     i1l1357:
  3465  03A4  01D7               	clrf	___fladd@b+3
  3466  03A5  2BAE               	goto	i1l1361
  3467  03A6                     i1l1359:
  3468  03A6  3000               	movlw	0
  3469  03A7  00D7               	movwf	___fladd@b+3
  3470  03A8  3000               	movlw	0
  3471  03A9  00D6               	movwf	___fladd@b+2
  3472  03AA  3000               	movlw	0
  3473  03AB  00D5               	movwf	___fladd@b+1
  3474  03AC  3000               	movlw	0
  3475  03AD  00D4               	movwf	___fladd@b
  3476  03AE                     i1l1361:
  3477  03AE  085B               	movf	___fladd@a+3,w
  3478  03AF  3980               	andlw	128
  3479  03B0  00DC               	movwf	??___fladd
  3480  03B1  085C               	movf	??___fladd,w
  3481  03B2  00E5               	movwf	___fladd@aexp
  3482  03B3                     i1l1363:
  3483  03B3  0865               	movf	___fladd@aexp,w
  3484  03B4  0664               	xorwf	___fladd@signs,w
  3485  03B5  1903               	skipnz
  3486  03B6  2BB8               	goto	u158_21
  3487  03B7  2BB9               	goto	u158_20
  3488  03B8                     u158_21:
  3489  03B8  2BBA               	goto	i1l1367
  3490  03B9                     u158_20:
  3491  03B9                     i1l1365:
  3492  03B9  1764               	bsf	___fladd@signs,6
  3493  03BA                     i1l1367:
  3494  03BA  085B               	movf	___fladd@a+3,w
  3495  03BB  00DC               	movwf	??___fladd
  3496  03BC  075C               	addwf	??___fladd,w
  3497  03BD  00DD               	movwf	??___fladd+1
  3498  03BE  085D               	movf	??___fladd+1,w
  3499  03BF  00E5               	movwf	___fladd@aexp
  3500  03C0                     i1l1369:
  3501  03C0  1FDA               	btfss	___fladd@a+2,7
  3502  03C1  2BC3               	goto	u159_21
  3503  03C2  2BC4               	goto	u159_20
  3504  03C3                     u159_21:
  3505  03C3  2BC5               	goto	i1l1373
  3506  03C4                     u159_20:
  3507  03C4                     i1l1371:
  3508  03C4  1465               	bsf	___fladd@aexp,0
  3509  03C5                     i1l1373:
  3510  03C5  0865               	movf	___fladd@aexp,w
  3511  03C6  1903               	btfsc	3,2
  3512  03C7  2BC9               	goto	u160_21
  3513  03C8  2BCA               	goto	u160_20
  3514  03C9                     u160_21:
  3515  03C9  2BDA               	goto	i1l1383
  3516  03CA                     u160_20:
  3517  03CA                     i1l1375:
  3518  03CA  0A65               	incf	___fladd@aexp,w
  3519  03CB  1D03               	btfss	3,2
  3520  03CC  2BCE               	goto	u161_21
  3521  03CD  2BCF               	goto	u161_20
  3522  03CE                     u161_21:
  3523  03CE  2BD7               	goto	i1l1379
  3524  03CF                     u161_20:
  3525  03CF                     i1l1377:
  3526  03CF  3000               	movlw	0
  3527  03D0  00DB               	movwf	___fladd@a+3
  3528  03D1  3000               	movlw	0
  3529  03D2  00DA               	movwf	___fladd@a+2
  3530  03D3  3000               	movlw	0
  3531  03D4  00D9               	movwf	___fladd@a+1
  3532  03D5  3000               	movlw	0
  3533  03D6  00D8               	movwf	___fladd@a
  3534  03D7                     i1l1379:
  3535  03D7  17DA               	bsf	___fladd@a+2,7
  3536  03D8                     i1l1381:
  3537  03D8  01DB               	clrf	___fladd@a+3
  3538  03D9  2BE2               	goto	i1l448
  3539  03DA                     i1l1383:
  3540  03DA  3000               	movlw	0
  3541  03DB  00DB               	movwf	___fladd@a+3
  3542  03DC  3000               	movlw	0
  3543  03DD  00DA               	movwf	___fladd@a+2
  3544  03DE  3000               	movlw	0
  3545  03DF  00D9               	movwf	___fladd@a+1
  3546  03E0  3000               	movlw	0
  3547  03E1  00D8               	movwf	___fladd@a
  3548  03E2                     i1l448:
  3549  03E2  0866               	movf	___fladd@bexp,w
  3550  03E3  0265               	subwf	___fladd@aexp,w
  3551  03E4  1803               	skipnc
  3552  03E5  2BE7               	goto	u162_21
  3553  03E6  2BE8               	goto	u162_20
  3554  03E7                     u162_21:
  3555  03E7  2C2C               	goto	i1l1419
  3556  03E8                     u162_20:
  3557  03E8                     i1l1385:
  3558  03E8  1F64               	btfss	___fladd@signs,6
  3559  03E9  2BEB               	goto	u163_21
  3560  03EA  2BEC               	goto	u163_20
  3561  03EB                     u163_21:
  3562  03EB  2BF0               	goto	i1l1389
  3563  03EC                     u163_20:
  3564  03EC                     i1l1387:
  3565  03EC  3080               	movlw	128
  3566  03ED  00DC               	movwf	??___fladd
  3567  03EE  085C               	movf	??___fladd,w
  3568  03EF  06E4               	xorwf	___fladd@signs,f
  3569  03F0                     i1l1389:
  3570  03F0  0866               	movf	___fladd@bexp,w
  3571  03F1  00DC               	movwf	??___fladd
  3572  03F2  085C               	movf	??___fladd,w
  3573  03F3  00E7               	movwf	___fladd@grs
  3574  03F4                     i1l1391:
  3575  03F4  0865               	movf	___fladd@aexp,w
  3576  03F5  00DC               	movwf	??___fladd
  3577  03F6  085C               	movf	??___fladd,w
  3578  03F7  00E6               	movwf	___fladd@bexp
  3579  03F8                     i1l1393:
  3580  03F8  0867               	movf	___fladd@grs,w
  3581  03F9  00DC               	movwf	??___fladd
  3582  03FA  085C               	movf	??___fladd,w
  3583  03FB  00E5               	movwf	___fladd@aexp
  3584  03FC                     i1l1395:
  3585  03FC  0854               	movf	___fladd@b,w
  3586  03FD  00DC               	movwf	??___fladd
  3587  03FE  085C               	movf	??___fladd,w
  3588  03FF  00E7               	movwf	___fladd@grs
  3589  0400                     i1l1397:
  3590  0400  0858               	movf	___fladd@a,w
  3591  0401  00DC               	movwf	??___fladd
  3592  0402  085C               	movf	??___fladd,w
  3593  0403  00D4               	movwf	___fladd@b
  3594  0404                     i1l1399:
  3595  0404  0867               	movf	___fladd@grs,w
  3596  0405  00DC               	movwf	??___fladd
  3597  0406  085C               	movf	??___fladd,w
  3598  0407  00D8               	movwf	___fladd@a
  3599  0408                     i1l1401:
  3600  0408  0855               	movf	___fladd@b+1,w
  3601  0409  00DC               	movwf	??___fladd
  3602  040A  085C               	movf	??___fladd,w
  3603  040B  00E7               	movwf	___fladd@grs
  3604  040C                     i1l1403:
  3605  040C  0859               	movf	___fladd@a+1,w
  3606  040D  00DC               	movwf	??___fladd
  3607  040E  085C               	movf	??___fladd,w
  3608  040F  00D5               	movwf	___fladd@b+1
  3609  0410                     i1l1405:
  3610  0410  0867               	movf	___fladd@grs,w
  3611  0411  00DC               	movwf	??___fladd
  3612  0412  085C               	movf	??___fladd,w
  3613  0413  00D9               	movwf	___fladd@a+1
  3614  0414                     i1l1407:
  3615  0414  0856               	movf	___fladd@b+2,w
  3616  0415  00DC               	movwf	??___fladd
  3617  0416  085C               	movf	??___fladd,w
  3618  0417  00E7               	movwf	___fladd@grs
  3619  0418                     i1l1409:
  3620  0418  085A               	movf	___fladd@a+2,w
  3621  0419  00DC               	movwf	??___fladd
  3622  041A  085C               	movf	??___fladd,w
  3623  041B  00D6               	movwf	___fladd@b+2
  3624  041C                     i1l1411:
  3625  041C  0867               	movf	___fladd@grs,w
  3626  041D  00DC               	movwf	??___fladd
  3627  041E  085C               	movf	??___fladd,w
  3628  041F  00DA               	movwf	___fladd@a+2
  3629  0420                     i1l1413:
  3630  0420  0857               	movf	___fladd@b+3,w
  3631  0421  00DC               	movwf	??___fladd
  3632  0422  085C               	movf	??___fladd,w
  3633  0423  00E7               	movwf	___fladd@grs
  3634  0424                     i1l1415:
  3635  0424  085B               	movf	___fladd@a+3,w
  3636  0425  00DC               	movwf	??___fladd
  3637  0426  085C               	movf	??___fladd,w
  3638  0427  00D7               	movwf	___fladd@b+3
  3639  0428                     i1l1417:
  3640  0428  0867               	movf	___fladd@grs,w
  3641  0429  00DC               	movwf	??___fladd
  3642  042A  085C               	movf	??___fladd,w
  3643  042B  00DB               	movwf	___fladd@a+3
  3644  042C                     i1l1419:
  3645  042C  01E7               	clrf	___fladd@grs
  3646  042D                     i1l1421:
  3647  042D  0865               	movf	___fladd@aexp,w
  3648  042E  00DC               	movwf	??___fladd
  3649  042F  01DD               	clrf	??___fladd+1
  3650  0430  085D               	movf	??___fladd+1,w
  3651  0431  00DF               	movwf	??___fladd+3
  3652  0432  0866               	movf	___fladd@bexp,w
  3653  0433  025C               	subwf	??___fladd,w
  3654  0434  00DE               	movwf	??___fladd+2
  3655  0435  1C03               	skipc
  3656  0436  03DF               	decf	??___fladd+3,f
  3657  0437  085F               	movf	??___fladd+3,w
  3658  0438  3A80               	xorlw	128
  3659  0439  00FF               	movwf	btemp+1
  3660  043A  3080               	movlw	128
  3661  043B  027F               	subwf	btemp+1,w
  3662  043C  1D03               	skipz
  3663  043D  2C40               	goto	u164_25
  3664  043E  301A               	movlw	26
  3665  043F  025E               	subwf	??___fladd+2,w
  3666  0440                     u164_25:
  3667  0440  1C03               	skipc
  3668  0441  2C43               	goto	u164_21
  3669  0442  2C44               	goto	u164_20
  3670  0443                     u164_21:
  3671  0443  2C81               	goto	i1l1437
  3672  0444                     u164_20:
  3673  0444                     i1l1423:
  3674  0444  1283               	bcf	3,5	;RP0=0, select bank0
  3675  0445  1303               	bcf	3,6	;RP1=0, select bank0
  3676  0446  0857               	movf	___fladd@b+3,w
  3677  0447  0456               	iorwf	___fladd@b+2,w
  3678  0448  0455               	iorwf	___fladd@b+1,w
  3679  0449  0454               	iorwf	___fladd@b,w
  3680  044A  1D03               	skipz
  3681  044B  2C4D               	goto	u165_21
  3682  044C  2C4F               	goto	u165_20
  3683  044D                     u165_21:
  3684  044D  3001               	movlw	1
  3685  044E  2C50               	goto	u166_20
  3686  044F                     u165_20:
  3687  044F  3000               	movlw	0
  3688  0450                     u166_20:
  3689  0450  00DC               	movwf	??___fladd
  3690  0451  085C               	movf	??___fladd,w
  3691  0452  00E7               	movwf	___fladd@grs
  3692  0453  3000               	movlw	0
  3693  0454  00D7               	movwf	___fladd@b+3
  3694  0455  3000               	movlw	0
  3695  0456  00D6               	movwf	___fladd@b+2
  3696  0457  3000               	movlw	0
  3697  0458  00D5               	movwf	___fladd@b+1
  3698  0459  3000               	movlw	0
  3699  045A  00D4               	movwf	___fladd@b
  3700  045B  0865               	movf	___fladd@aexp,w
  3701  045C  00DC               	movwf	??___fladd
  3702  045D  085C               	movf	??___fladd,w
  3703  045E  00E6               	movwf	___fladd@bexp
  3704  045F  2C89               	goto	i1l452
  3705  0460                     i1l454:
  3706  0460  1C67               	btfss	___fladd@grs,0
  3707  0461  2C63               	goto	u167_21
  3708  0462  2C64               	goto	u167_20
  3709  0463                     u167_21:
  3710  0463  2C6D               	goto	i1l1427
  3711  0464                     u167_20:
  3712  0464                     i1l1425:
  3713  0464  0867               	movf	___fladd@grs,w
  3714  0465  00DC               	movwf	??___fladd
  3715  0466  1003               	clrc
  3716  0467  0C5C               	rrf	??___fladd,w
  3717  0468  3801               	iorlw	1
  3718  0469  00DD               	movwf	??___fladd+1
  3719  046A  085D               	movf	??___fladd+1,w
  3720  046B  00E7               	movwf	___fladd@grs
  3721  046C  2C6F               	goto	i1l1429
  3722  046D                     i1l1427:
  3723  046D  1003               	clrc
  3724  046E  0CE7               	rrf	___fladd@grs,f
  3725  046F                     i1l1429:
  3726  046F  1C54               	btfss	___fladd@b,0
  3727  0470  2C72               	goto	u168_21
  3728  0471  2C73               	goto	u168_20
  3729  0472                     u168_21:
  3730  0472  2C74               	goto	i1l1433
  3731  0473                     u168_20:
  3732  0473                     i1l1431:
  3733  0473  17E7               	bsf	___fladd@grs,7
  3734  0474                     i1l1433:
  3735  0474  3001               	movlw	1
  3736  0475  00DC               	movwf	??___fladd
  3737  0476                     u169_25:
  3738  0476  0D57               	rlf	___fladd@b+3,w
  3739  0477  0CD7               	rrf	___fladd@b+3,f
  3740  0478  0CD6               	rrf	___fladd@b+2,f
  3741  0479  0CD5               	rrf	___fladd@b+1,f
  3742  047A  0CD4               	rrf	___fladd@b,f
  3743  047B  0BDC               	decfsz	??___fladd& (0+127),f
  3744  047C  2C76               	goto	u169_25
  3745  047D                     i1l1435:
  3746  047D  3001               	movlw	1
  3747  047E  00DC               	movwf	??___fladd
  3748  047F  085C               	movf	??___fladd,w
  3749  0480  07E6               	addwf	___fladd@bexp,f
  3750  0481                     i1l1437:
  3751  0481  1283               	bcf	3,5	;RP0=0, select bank0
  3752  0482  1303               	bcf	3,6	;RP1=0, select bank0
  3753  0483  0865               	movf	___fladd@aexp,w
  3754  0484  0266               	subwf	___fladd@bexp,w
  3755  0485  1C03               	skipc
  3756  0486  2C88               	goto	u170_21
  3757  0487  2C89               	goto	u170_20
  3758  0488                     u170_21:
  3759  0488  2C60               	goto	i1l454
  3760  0489                     u170_20:
  3761  0489                     i1l452:
  3762  0489  1B64               	btfsc	___fladd@signs,6
  3763  048A  2C8C               	goto	u171_21
  3764  048B  2C8D               	goto	u171_20
  3765  048C                     u171_21:
  3766  048C  2CD8               	goto	i1l1463
  3767  048D                     u171_20:
  3768  048D                     i1l1439:
  3769  048D  0866               	movf	___fladd@bexp,w
  3770  048E  1D03               	btfss	3,2
  3771  048F  2C91               	goto	u172_21
  3772  0490  2C92               	goto	u172_20
  3773  0491                     u172_21:
  3774  0491  2C9B               	goto	i1l1445
  3775  0492                     u172_20:
  3776  0492                     i1l1441:
  3777  0492  3000               	movlw	0
  3778  0493  00D7               	movwf	?___fladd+3
  3779  0494  3000               	movlw	0
  3780  0495  00D6               	movwf	?___fladd+2
  3781  0496  3000               	movlw	0
  3782  0497  00D5               	movwf	?___fladd+1
  3783  0498  3000               	movlw	0
  3784  0499  00D4               	movwf	?___fladd
  3785  049A  2E06               	goto	i1l461
  3786  049B                     i1l1445:
  3787  049B  0858               	movf	___fladd@a,w
  3788  049C  07D4               	addwf	___fladd@b,f
  3789  049D  0859               	movf	___fladd@a+1,w
  3790  049E  1103               	clrz
  3791  049F  1803               	skipnc
  3792  04A0  3E01               	addlw	1
  3793  04A1  1903               	skipnz
  3794  04A2  2CA4               	goto	u173_21
  3795  04A3  07D5               	addwf	___fladd@b+1,f
  3796  04A4                     u173_21:
  3797  04A4  085A               	movf	___fladd@a+2,w
  3798  04A5  1103               	clrz
  3799  04A6  1803               	skipnc
  3800  04A7  3E01               	addlw	1
  3801  04A8  1903               	skipnz
  3802  04A9  2CAB               	goto	u173_22
  3803  04AA  07D6               	addwf	___fladd@b+2,f
  3804  04AB                     u173_22:
  3805  04AB  085B               	movf	___fladd@a+3,w
  3806  04AC  1103               	clrz
  3807  04AD  1803               	skipnc
  3808  04AE  3E01               	addlw	1
  3809  04AF  1903               	skipnz
  3810  04B0  2CB2               	goto	u173_23
  3811  04B1  07D7               	addwf	___fladd@b+3,f
  3812  04B2                     u173_23:
  3813  04B2                     i1l1447:
  3814  04B2  1C57               	btfss	___fladd@b+3,0
  3815  04B3  2CB5               	goto	u174_21
  3816  04B4  2CB6               	goto	u174_20
  3817  04B5                     u174_21:
  3818  04B5  2D8C               	goto	i1l1497
  3819  04B6                     u174_20:
  3820  04B6                     i1l1449:
  3821  04B6  1C67               	btfss	___fladd@grs,0
  3822  04B7  2CB9               	goto	u175_21
  3823  04B8  2CBA               	goto	u175_20
  3824  04B9                     u175_21:
  3825  04B9  2CC3               	goto	i1l1453
  3826  04BA                     u175_20:
  3827  04BA                     i1l1451:
  3828  04BA  0867               	movf	___fladd@grs,w
  3829  04BB  00DC               	movwf	??___fladd
  3830  04BC  1003               	clrc
  3831  04BD  0C5C               	rrf	??___fladd,w
  3832  04BE  3801               	iorlw	1
  3833  04BF  00DD               	movwf	??___fladd+1
  3834  04C0  085D               	movf	??___fladd+1,w
  3835  04C1  00E7               	movwf	___fladd@grs
  3836  04C2  2CC5               	goto	i1l1455
  3837  04C3                     i1l1453:
  3838  04C3  1003               	clrc
  3839  04C4  0CE7               	rrf	___fladd@grs,f
  3840  04C5                     i1l1455:
  3841  04C5  1C54               	btfss	___fladd@b,0
  3842  04C6  2CC8               	goto	u176_21
  3843  04C7  2CC9               	goto	u176_20
  3844  04C8                     u176_21:
  3845  04C8  2CCA               	goto	i1l1459
  3846  04C9                     u176_20:
  3847  04C9                     i1l1457:
  3848  04C9  17E7               	bsf	___fladd@grs,7
  3849  04CA                     i1l1459:
  3850  04CA  3001               	movlw	1
  3851  04CB  00DC               	movwf	??___fladd
  3852  04CC                     u177_25:
  3853  04CC  0D57               	rlf	___fladd@b+3,w
  3854  04CD  0CD7               	rrf	___fladd@b+3,f
  3855  04CE  0CD6               	rrf	___fladd@b+2,f
  3856  04CF  0CD5               	rrf	___fladd@b+1,f
  3857  04D0  0CD4               	rrf	___fladd@b,f
  3858  04D1  0BDC               	decfsz	??___fladd& (0+127),f
  3859  04D2  2CCC               	goto	u177_25
  3860  04D3                     i1l1461:
  3861  04D3  3001               	movlw	1
  3862  04D4  00DC               	movwf	??___fladd
  3863  04D5  085C               	movf	??___fladd,w
  3864  04D6  07E6               	addwf	___fladd@bexp,f
  3865  04D7  2D8C               	goto	i1l1497
  3866  04D8                     i1l1463:
  3867  04D8  0857               	movf	___fladd@b+3,w
  3868  04D9  3A80               	xorlw	128
  3869  04DA  00FF               	movwf	btemp+1
  3870  04DB  085B               	movf	___fladd@a+3,w
  3871  04DC  3A80               	xorlw	128
  3872  04DD  027F               	subwf	btemp+1,w
  3873  04DE  1D03               	skipz
  3874  04DF  2CEA               	goto	u178_23
  3875  04E0  085A               	movf	___fladd@a+2,w
  3876  04E1  0256               	subwf	___fladd@b+2,w
  3877  04E2  1D03               	skipz
  3878  04E3  2CEA               	goto	u178_23
  3879  04E4  0859               	movf	___fladd@a+1,w
  3880  04E5  0255               	subwf	___fladd@b+1,w
  3881  04E6  1D03               	skipz
  3882  04E7  2CEA               	goto	u178_23
  3883  04E8  0858               	movf	___fladd@a,w
  3884  04E9  0254               	subwf	___fladd@b,w
  3885  04EA                     u178_23:
  3886  04EA  1803               	skipnc
  3887  04EB  2CED               	goto	u178_21
  3888  04EC  2CEE               	goto	u178_20
  3889  04ED                     u178_21:
  3890  04ED  2D46               	goto	i1l1473
  3891  04EE                     u178_20:
  3892  04EE                     i1l1465:
  3893  04EE  30FF               	movlw	255
  3894  04EF  00DC               	movwf	??___fladd
  3895  04F0  30FF               	movlw	255
  3896  04F1  00DD               	movwf	??___fladd+1
  3897  04F2  30FF               	movlw	255
  3898  04F3  00DE               	movwf	??___fladd+2
  3899  04F4  30FF               	movlw	255
  3900  04F5  00DF               	movwf	??___fladd+3
  3901  04F6  0858               	movf	___fladd@a,w
  3902  04F7  00E0               	movwf	??___fladd+4
  3903  04F8  0859               	movf	___fladd@a+1,w
  3904  04F9  00E1               	movwf	??___fladd+5
  3905  04FA  085A               	movf	___fladd@a+2,w
  3906  04FB  00E2               	movwf	??___fladd+6
  3907  04FC  085B               	movf	___fladd@a+3,w
  3908  04FD  00E3               	movwf	??___fladd+7
  3909  04FE  0854               	movf	___fladd@b,w
  3910  04FF  02E0               	subwf	??___fladd+4,f
  3911  0500  0855               	movf	___fladd@b+1,w
  3912  0501  1C03               	skipc
  3913  0502  0F55               	incfsz	___fladd@b+1,w
  3914  0503  2D05               	goto	u179_21
  3915  0504  2D06               	goto	u179_22
  3916  0505                     u179_21:
  3917  0505  02E1               	subwf	??___fladd+5,f
  3918  0506                     u179_22:
  3919  0506  0856               	movf	___fladd@b+2,w
  3920  0507  1C03               	skipc
  3921  0508  0F56               	incfsz	___fladd@b+2,w
  3922  0509  2D0B               	goto	u179_23
  3923  050A  2D0C               	goto	u179_24
  3924  050B                     u179_23:
  3925  050B  02E2               	subwf	??___fladd+6,f
  3926  050C                     u179_24:
  3927  050C  0857               	movf	___fladd@b+3,w
  3928  050D  1C03               	skipc
  3929  050E  0F57               	incfsz	___fladd@b+3,w
  3930  050F  2D11               	goto	u179_25
  3931  0510  2D12               	goto	u179_26
  3932  0511                     u179_25:
  3933  0511  02E3               	subwf	??___fladd+7,f
  3934  0512                     u179_26:
  3935  0512  0860               	movf	??___fladd+4,w
  3936  0513  07DC               	addwf	??___fladd,f
  3937  0514  0861               	movf	??___fladd+5,w
  3938  0515  1803               	skipnc
  3939  0516  0F61               	incfsz	??___fladd+5,w
  3940  0517  2D19               	goto	u180_20
  3941  0518  2D1A               	goto	u180_21
  3942  0519                     u180_20:
  3943  0519  07DD               	addwf	??___fladd+1,f
  3944  051A                     u180_21:
  3945  051A  0862               	movf	??___fladd+6,w
  3946  051B  1803               	skipnc
  3947  051C  0F62               	incfsz	??___fladd+6,w
  3948  051D  2D1F               	goto	u180_22
  3949  051E  2D20               	goto	u180_23
  3950  051F                     u180_22:
  3951  051F  07DE               	addwf	??___fladd+2,f
  3952  0520                     u180_23:
  3953  0520  0863               	movf	??___fladd+7,w
  3954  0521  1803               	skipnc
  3955  0522  0A63               	incf	??___fladd+7,w
  3956  0523  07DF               	addwf	??___fladd+3,f
  3957  0524  085F               	movf	??___fladd+3,w
  3958  0525  00D7               	movwf	___fladd@b+3
  3959  0526  085E               	movf	??___fladd+2,w
  3960  0527  00D6               	movwf	___fladd@b+2
  3961  0528  085D               	movf	??___fladd+1,w
  3962  0529  00D5               	movwf	___fladd@b+1
  3963  052A  085C               	movf	??___fladd,w
  3964  052B  00D4               	movwf	___fladd@b
  3965  052C                     i1l1467:
  3966  052C  3080               	movlw	128
  3967  052D  00DC               	movwf	??___fladd
  3968  052E  085C               	movf	??___fladd,w
  3969  052F  06E4               	xorwf	___fladd@signs,f
  3970  0530  09E7               	comf	___fladd@grs,f
  3971  0531  0AE7               	incf	___fladd@grs,f
  3972  0532                     i1l1469:
  3973  0532  0867               	movf	___fladd@grs,w
  3974  0533  1D03               	btfss	3,2
  3975  0534  2D36               	goto	u181_21
  3976  0535  2D37               	goto	u181_20
  3977  0536                     u181_21:
  3978  0536  2D54               	goto	i1l469
  3979  0537                     u181_20:
  3980  0537                     i1l1471:
  3981  0537  3001               	movlw	1
  3982  0538  07D4               	addwf	___fladd@b,f
  3983  0539  3000               	movlw	0
  3984  053A  1803               	skipnc
  3985  053B  3001               	movlw	1
  3986  053C  07D5               	addwf	___fladd@b+1,f
  3987  053D  3000               	movlw	0
  3988  053E  1803               	skipnc
  3989  053F  3001               	movlw	1
  3990  0540  07D6               	addwf	___fladd@b+2,f
  3991  0541  3000               	movlw	0
  3992  0542  1803               	skipnc
  3993  0543  3001               	movlw	1
  3994  0544  07D7               	addwf	___fladd@b+3,f
  3995  0545  2D54               	goto	i1l469
  3996  0546                     i1l1473:
  3997  0546  0858               	movf	___fladd@a,w
  3998  0547  02D4               	subwf	___fladd@b,f
  3999  0548  0859               	movf	___fladd@a+1,w
  4000  0549  1C03               	skipc
  4001  054A  0F59               	incfsz	___fladd@a+1,w
  4002  054B  02D5               	subwf	___fladd@b+1,f
  4003  054C  085A               	movf	___fladd@a+2,w
  4004  054D  1C03               	skipc
  4005  054E  0F5A               	incfsz	___fladd@a+2,w
  4006  054F  02D6               	subwf	___fladd@b+2,f
  4007  0550  085B               	movf	___fladd@a+3,w
  4008  0551  1C03               	skipc
  4009  0552  0F5B               	incfsz	___fladd@a+3,w
  4010  0553  02D7               	subwf	___fladd@b+3,f
  4011  0554                     i1l469:
  4012  0554  0857               	movf	___fladd@b+3,w
  4013  0555  0456               	iorwf	___fladd@b+2,w
  4014  0556  0455               	iorwf	___fladd@b+1,w
  4015  0557  0454               	iorwf	___fladd@b,w
  4016  0558  1D03               	skipz
  4017  0559  2D5B               	goto	u182_21
  4018  055A  2D5C               	goto	u182_20
  4019  055B                     u182_21:
  4020  055B  2D88               	goto	i1l1495
  4021  055C                     u182_20:
  4022  055C                     i1l1475:
  4023  055C  0867               	movf	___fladd@grs,w
  4024  055D  1D03               	btfss	3,2
  4025  055E  2D60               	goto	u183_21
  4026  055F  2D61               	goto	u183_20
  4027  0560                     u183_21:
  4028  0560  2D88               	goto	i1l1495
  4029  0561                     u183_20:
  4030  0561                     i1l1477:
  4031  0561  3000               	movlw	0
  4032  0562  00D7               	movwf	?___fladd+3
  4033  0563  3000               	movlw	0
  4034  0564  00D6               	movwf	?___fladd+2
  4035  0565  3000               	movlw	0
  4036  0566  00D5               	movwf	?___fladd+1
  4037  0567  3000               	movlw	0
  4038  0568  00D4               	movwf	?___fladd
  4039  0569  2E06               	goto	i1l461
  4040  056A                     i1l1481:
  4041  056A  3001               	movlw	1
  4042  056B  00DC               	movwf	??___fladd
  4043  056C                     u184_25:
  4044  056C  1003               	clrc
  4045  056D  0DD4               	rlf	___fladd@b,f
  4046  056E  0DD5               	rlf	___fladd@b+1,f
  4047  056F  0DD6               	rlf	___fladd@b+2,f
  4048  0570  0DD7               	rlf	___fladd@b+3,f
  4049  0571  0BDC               	decfsz	??___fladd,f
  4050  0572  2D6C               	goto	u184_25
  4051  0573                     i1l1483:
  4052  0573  1FE7               	btfss	___fladd@grs,7
  4053  0574  2D76               	goto	u185_21
  4054  0575  2D77               	goto	u185_20
  4055  0576                     u185_21:
  4056  0576  2D78               	goto	i1l473
  4057  0577                     u185_20:
  4058  0577                     i1l1485:
  4059  0577  1454               	bsf	___fladd@b,0
  4060  0578                     i1l473:
  4061  0578  1C67               	btfss	___fladd@grs,0
  4062  0579  2D7B               	goto	u186_21
  4063  057A  2D7C               	goto	u186_20
  4064  057B                     u186_21:
  4065  057B  2D7F               	goto	i1l1489
  4066  057C                     u186_20:
  4067  057C                     i1l1487:
  4068  057C  1403               	setc
  4069  057D  0DE7               	rlf	___fladd@grs,f
  4070  057E  2D81               	goto	i1l1491
  4071  057F                     i1l1489:
  4072  057F  1003               	clrc
  4073  0580  0DE7               	rlf	___fladd@grs,f
  4074  0581                     i1l1491:
  4075  0581  0866               	movf	___fladd@bexp,w
  4076  0582  1903               	btfsc	3,2
  4077  0583  2D85               	goto	u187_21
  4078  0584  2D86               	goto	u187_20
  4079  0585                     u187_21:
  4080  0585  2D88               	goto	i1l1495
  4081  0586                     u187_20:
  4082  0586                     i1l1493:
  4083  0586  3001               	movlw	1
  4084  0587  02E6               	subwf	___fladd@bexp,f
  4085  0588                     i1l1495:
  4086  0588  1FD6               	btfss	___fladd@b+2,7
  4087  0589  2D8B               	goto	u188_21
  4088  058A  2D8C               	goto	u188_20
  4089  058B                     u188_21:
  4090  058B  2D6A               	goto	i1l1481
  4091  058C                     u188_20:
  4092  058C                     i1l1497:
  4093  058C  01E5               	clrf	___fladd@aexp
  4094  058D                     i1l1499:
  4095  058D  1FE7               	btfss	___fladd@grs,7
  4096  058E  2D90               	goto	u189_21
  4097  058F  2D91               	goto	u189_20
  4098  0590                     u189_21:
  4099  0590  2D9F               	goto	i1l1507
  4100  0591                     u189_20:
  4101  0591                     i1l1501:
  4102  0591  0867               	movf	___fladd@grs,w
  4103  0592  397F               	andlw	127
  4104  0593  1903               	btfsc	3,2
  4105  0594  2D96               	goto	u190_21
  4106  0595  2D97               	goto	u190_20
  4107  0596                     u190_21:
  4108  0596  2D9A               	goto	i1l479
  4109  0597                     u190_20:
  4110  0597                     i1l1503:
  4111  0597  01E5               	clrf	___fladd@aexp
  4112  0598  0AE5               	incf	___fladd@aexp,f
  4113  0599  2D9F               	goto	i1l1507
  4114  059A                     i1l479:
  4115  059A  1C54               	btfss	___fladd@b,0
  4116  059B  2D9D               	goto	u191_21
  4117  059C  2D9E               	goto	u191_20
  4118  059D                     u191_21:
  4119  059D  2D9F               	goto	i1l1507
  4120  059E                     u191_20:
  4121  059E  2D97               	goto	i1l1503
  4122  059F                     i1l1507:
  4123  059F  0865               	movf	___fladd@aexp,w
  4124  05A0  1903               	btfsc	3,2
  4125  05A1  2DA3               	goto	u192_21
  4126  05A2  2DA4               	goto	u192_20
  4127  05A3                     u192_21:
  4128  05A3  2DD8               	goto	i1l482
  4129  05A4                     u192_20:
  4130  05A4                     i1l1509:
  4131  05A4  3001               	movlw	1
  4132  05A5  07D4               	addwf	___fladd@b,f
  4133  05A6  3000               	movlw	0
  4134  05A7  1803               	skipnc
  4135  05A8  3001               	movlw	1
  4136  05A9  07D5               	addwf	___fladd@b+1,f
  4137  05AA  3000               	movlw	0
  4138  05AB  1803               	skipnc
  4139  05AC  3001               	movlw	1
  4140  05AD  07D6               	addwf	___fladd@b+2,f
  4141  05AE  3000               	movlw	0
  4142  05AF  1803               	skipnc
  4143  05B0  3001               	movlw	1
  4144  05B1  07D7               	addwf	___fladd@b+3,f
  4145  05B2                     i1l1511:
  4146  05B2  1C57               	btfss	___fladd@b+3,0
  4147  05B3  2DB5               	goto	u193_21
  4148  05B4  2DB6               	goto	u193_20
  4149  05B5                     u193_21:
  4150  05B5  2DD8               	goto	i1l482
  4151  05B6                     u193_20:
  4152  05B6                     i1l1513:
  4153  05B6  0854               	movf	___fladd@b,w
  4154  05B7  00DC               	movwf	??___fladd
  4155  05B8  0855               	movf	___fladd@b+1,w
  4156  05B9  00DD               	movwf	??___fladd+1
  4157  05BA  0856               	movf	___fladd@b+2,w
  4158  05BB  00DE               	movwf	??___fladd+2
  4159  05BC  0857               	movf	___fladd@b+3,w
  4160  05BD  00DF               	movwf	??___fladd+3
  4161  05BE  3001               	movlw	1
  4162  05BF  00E0               	movwf	??___fladd+4
  4163  05C0                     u194_25:
  4164  05C0  0D5F               	rlf	??___fladd+3,w
  4165  05C1  0CDF               	rrf	??___fladd+3,f
  4166  05C2  0CDE               	rrf	??___fladd+2,f
  4167  05C3  0CDD               	rrf	??___fladd+1,f
  4168  05C4  0CDC               	rrf	??___fladd,f
  4169  05C5                     u194_20:
  4170  05C5  0BE0               	decfsz	??___fladd+4,f
  4171  05C6  2DC0               	goto	u194_25
  4172  05C7  085F               	movf	??___fladd+3,w
  4173  05C8  00D7               	movwf	___fladd@b+3
  4174  05C9  085E               	movf	??___fladd+2,w
  4175  05CA  00D6               	movwf	___fladd@b+2
  4176  05CB  085D               	movf	??___fladd+1,w
  4177  05CC  00D5               	movwf	___fladd@b+1
  4178  05CD  085C               	movf	??___fladd,w
  4179  05CE  00D4               	movwf	___fladd@b
  4180  05CF  0A66               	incf	___fladd@bexp,w
  4181  05D0  1903               	btfsc	3,2
  4182  05D1  2DD3               	goto	u195_21
  4183  05D2  2DD4               	goto	u195_20
  4184  05D3                     u195_21:
  4185  05D3  2DD8               	goto	i1l482
  4186  05D4                     u195_20:
  4187  05D4                     i1l1515:
  4188  05D4  3001               	movlw	1
  4189  05D5  00DC               	movwf	??___fladd
  4190  05D6  085C               	movf	??___fladd,w
  4191  05D7  07E6               	addwf	___fladd@bexp,f
  4192  05D8                     i1l482:
  4193  05D8  0A66               	incf	___fladd@bexp,w
  4194  05D9  1903               	btfsc	3,2
  4195  05DA  2DDC               	goto	u196_21
  4196  05DB  2DDD               	goto	u196_20
  4197  05DC                     u196_21:
  4198  05DC  2DE2               	goto	i1l1519
  4199  05DD                     u196_20:
  4200  05DD                     i1l1517:
  4201  05DD  0866               	movf	___fladd@bexp,w
  4202  05DE  1D03               	btfss	3,2
  4203  05DF  2DE1               	goto	u197_21
  4204  05E0  2DE2               	goto	u197_20
  4205  05E1                     u197_21:
  4206  05E1  2DF0               	goto	i1l1525
  4207  05E2                     u197_20:
  4208  05E2                     i1l1519:
  4209  05E2  3000               	movlw	0
  4210  05E3  00D7               	movwf	___fladd@b+3
  4211  05E4  3000               	movlw	0
  4212  05E5  00D6               	movwf	___fladd@b+2
  4213  05E6  3000               	movlw	0
  4214  05E7  00D5               	movwf	___fladd@b+1
  4215  05E8  3000               	movlw	0
  4216  05E9  00D4               	movwf	___fladd@b
  4217  05EA                     i1l1521:
  4218  05EA  0866               	movf	___fladd@bexp,w
  4219  05EB  1D03               	btfss	3,2
  4220  05EC  2DEE               	goto	u198_21
  4221  05ED  2DEF               	goto	u198_20
  4222  05EE                     u198_21:
  4223  05EE  2DF0               	goto	i1l1525
  4224  05EF                     u198_20:
  4225  05EF                     i1l1523:
  4226  05EF  01E4               	clrf	___fladd@signs
  4227  05F0                     i1l1525:
  4228  05F0  1C66               	btfss	___fladd@bexp,0
  4229  05F1  2DF3               	goto	u199_21
  4230  05F2  2DF4               	goto	u199_20
  4231  05F3                     u199_21:
  4232  05F3  2DF6               	goto	i1l1529
  4233  05F4                     u199_20:
  4234  05F4                     i1l1527:
  4235  05F4  17D6               	bsf	___fladd@b+2,7
  4236  05F5  2DFA               	goto	i1l490
  4237  05F6                     i1l1529:
  4238  05F6  307F               	movlw	127
  4239  05F7  00DC               	movwf	??___fladd
  4240  05F8  085C               	movf	??___fladd,w
  4241  05F9  05D6               	andwf	___fladd@b+2,f
  4242  05FA                     i1l490:
  4243  05FA  0866               	movf	___fladd@bexp,w
  4244  05FB  00DC               	movwf	??___fladd
  4245  05FC  1003               	clrc
  4246  05FD  0C5C               	rrf	??___fladd,w
  4247  05FE  00DD               	movwf	??___fladd+1
  4248  05FF  085D               	movf	??___fladd+1,w
  4249  0600  00D7               	movwf	___fladd@b+3
  4250  0601                     i1l1531:
  4251  0601  1FE4               	btfss	___fladd@signs,7
  4252  0602  2E04               	goto	u200_21
  4253  0603  2E05               	goto	u200_20
  4254  0604                     u200_21:
  4255  0604  2E06               	goto	i1l491
  4256  0605                     u200_20:
  4257  0605                     i1l1533:
  4258  0605  17D7               	bsf	___fladd@b+3,7
  4259  0606                     i1l491:
  4260  0606                     i1l461:
  4261  0606  0008               	return
  4262  0607                     __end_of___fladd:
  4263  007E                     btemp	set	126	;btemp
  4264  007E                     wtemp0	set	126
  4265                           
  4266                           	psect	idloc
  4267                           
  4268                           ;Config register IDLOC0 @ 0x2000
  4269                           ;	unspecified, using default values
  4270  2000                     	org	8192
  4271  2000  3FFF               	dw	16383
  4272                           
  4273                           ;Config register IDLOC1 @ 0x2001
  4274                           ;	unspecified, using default values
  4275  2001                     	org	8193
  4276  2001  3FFF               	dw	16383
  4277                           
  4278                           ;Config register IDLOC2 @ 0x2002
  4279                           ;	unspecified, using default values
  4280  2002                     	org	8194
  4281  2002  3FFF               	dw	16383
  4282                           
  4283                           ;Config register IDLOC3 @ 0x2003
  4284                           ;	unspecified, using default values
  4285  2003                     	org	8195
  4286  2003  3FFF               	dw	16383
  4287                           
  4288                           	psect	config
  4289                           
  4290                           ;Config register CONFIG1 @ 0x2007
  4291                           ;	Oscillator Selection bits
  4292                           ;	FOSC = INTRC_NOCLKOUT, INTOSCIO oscillator: I/O function on RA6/OSC2/CLKOUT pin, I/O f
      +                          unction on RA7/OSC1/CLKIN
  4293                           ;	Watchdog Timer Enable bit
  4294                           ;	WDTE = OFF, WDT disabled and can be enabled by SWDTEN bit of the WDTCON register
  4295                           ;	Power-up Timer Enable bit
  4296                           ;	PWRTE = OFF, PWRT disabled
  4297                           ;	RE3/MCLR pin function select bit
  4298                           ;	MCLRE = OFF, RE3/MCLR pin function is digital input, MCLR internally tied to VDD
  4299                           ;	Code Protection bit
  4300                           ;	CP = OFF, Program memory code protection is disabled
  4301                           ;	Data Code Protection bit
  4302                           ;	CPD = OFF, Data memory code protection is disabled
  4303                           ;	Brown Out Reset Selection bits
  4304                           ;	BOREN = OFF, BOR disabled
  4305                           ;	Internal External Switchover bit
  4306                           ;	IESO = OFF, Internal/External Switchover mode is disabled
  4307                           ;	Fail-Safe Clock Monitor Enabled bit
  4308                           ;	FCMEN = OFF, Fail-Safe Clock Monitor is disabled
  4309                           ;	Low Voltage Programming Enable bit
  4310                           ;	LVP = OFF, RB3 pin has digital I/O, HV on MCLR must be used for programming
  4311                           ;	In-Circuit Debugger Mode bit
  4312                           ;	DEBUG = 0x1, unprogrammed default
  4313  2007                     	org	8199
  4314  2007  20D4               	dw	8404
  4315                           
  4316                           ;Config register CONFIG2 @ 0x2008
  4317                           ;	Brown-out Reset Selection bit
  4318                           ;	BOR4V = BOR40V, Brown-out Reset set to 4.0V
  4319                           ;	Flash Program Memory Self Write Enable bits
  4320                           ;	WRT = OFF, Write protection off
  4321  2008                     	org	8200
  4322  2008  3FFF               	dw	16383

Data Sizes:
    Strings     0
    Constant    0
    Data        0
    BSS         3
    Persistent  0
    Stack       0

Auto Spaces:
    Space          Size  Autos    Used
    COMMON           14     14      14
    BANK0            80     79      80
    BANK1            80     16      18
    BANK3            96      0       0
    BANK2            96      0       0

Pointer List with Targets:

    None.

Critical Paths under _main in COMMON

    None.

Critical Paths under _isr in COMMON

    _interpol->___xxtofl
    ___fltol->___xxtofl
    ___flmul->___xxtofl
    ___fldiv->___xxtofl
    ___fladd->___xxtofl

Critical Paths under _main in BANK0

    None.

Critical Paths under _isr in BANK0

    _isr->_interpol
    _interpol->___fltol
    ___fltol->___fladd
    ___flmul->___fldiv
    ___fladd->___flmul

Critical Paths under _main in BANK1

    None.

Critical Paths under _isr in BANK1

    _isr->_interpol
    _interpol->___fltol

Critical Paths under _main in BANK3

    None.

Critical Paths under _isr in BANK3

    None.

Critical Paths under _main in BANK2

    None.

Critical Paths under _isr in BANK2

    None.

Call Graph Tables:

 ---------------------------------------------------------------------------------
 (Depth) Function   	        Calls       Base Space   Used Autos Params    Refs
 ---------------------------------------------------------------------------------
 (0) _main                                                 0     0      0       0
                              _setup
 ---------------------------------------------------------------------------------
 (1) _setup                                                0     0      0       0
 ---------------------------------------------------------------------------------
 Estimated maximum stack depth 1
 ---------------------------------------------------------------------------------
 (Depth) Function   	        Calls       Base Space   Used Autos Params    Refs
 ---------------------------------------------------------------------------------
 (2) _isr                                                  5     5      0    7341
                                             11 BANK1      5     5      0
                           _interpol
 ---------------------------------------------------------------------------------
 (3) _interpol                                             7     1      6    7341
                                             78 BANK0      1     1      0
                                              5 BANK1      6     0      6
                            ___fladd
                            ___fldiv
                            ___flmul
                            ___fltol
                           ___xxtofl
 ---------------------------------------------------------------------------------
 (4) ___xxtofl                                            14    10      4     626
                                              0 COMMON    14    10      4
 ---------------------------------------------------------------------------------
 (4) ___fltol                                             11     7      4     305
                                             72 BANK0      6     2      4
                                              0 BANK1      5     5      0
                            ___fladd (ARG)
                            ___fldiv (ARG)
                            ___flmul (ARG)
                           ___xxtofl (ARG)
 ---------------------------------------------------------------------------------
 (4) ___flmul                                             26    18      8    2417
                                             26 BANK0     26    18      8
                          __Umul8_16
                            ___fldiv (ARG)
                           ___xxtofl (ARG)
 ---------------------------------------------------------------------------------
 (5) __Umul8_16                                            9     7      2     799
                                              0 COMMON     9     7      2
 ---------------------------------------------------------------------------------
 (4) ___fldiv                                             26    18      8    1273
                                              0 BANK0     26    18      8
                           ___xxtofl (ARG)
 ---------------------------------------------------------------------------------
 (4) ___fladd                                             20    12      8    2262
                                             52 BANK0     20    12      8
                            ___fldiv (ARG)
                            ___flmul (ARG)
                           ___xxtofl (ARG)
 ---------------------------------------------------------------------------------
 Estimated maximum stack depth 5
 ---------------------------------------------------------------------------------

 Call Graph Graphs:

 _main (ROOT)
   _setup

 _isr (ROOT)
   _interpol
     ___fladd
       ___fldiv (ARG)
         ___xxtofl (ARG)
       ___flmul (ARG)
         __Umul8_16
         ___fldiv (ARG)
         ___xxtofl (ARG)
       ___xxtofl (ARG)
     ___fldiv
     ___flmul
     ___fltol
       ___fladd (ARG)
       ___fldiv (ARG)
       ___flmul (ARG)
       ___xxtofl (ARG)
     ___xxtofl

 Address spaces:
Name               Size   Autos  Total    Cost      Usage
BITCOMMON            E      0       0       0        0.0%
EEDATA             100      0       0       0        0.0%
NULL                 0      0       0       0        0.0%
CODE                 0      0       0       0        0.0%
COMMON               E      E       E       1      100.0%
BITSFR0              0      0       0       1        0.0%
SFR0                 0      0       0       1        0.0%
BITSFR1              0      0       0       2        0.0%
SFR1                 0      0       0       2        0.0%
STACK                0      0       0       2        0.0%
ABS                  0      0      70       3        0.0%
BITBANK0            50      0       0       4        0.0%
BITSFR3              0      0       0       4        0.0%
SFR3                 0      0       0       4        0.0%
BANK0               50     4F      50       5      100.0%
BITSFR2              0      0       0       5        0.0%
SFR2                 0      0       0       5        0.0%
BITBANK1            50      0       0       6        0.0%
BANK1               50     10      12       7       22.5%
BITBANK3            60      0       0       8        0.0%
BANK3               60      0       0       9        0.0%
BITBANK2            60      0       0      10        0.0%
BANK2               60      0       0      11        0.0%
DATA                 0      0      70      12        0.0%


Microchip Technology PIC Macro Assembler V2.35 build 20211206165544 
Symbol Table                                                                                   Sat May 14 18:35:41 2022

           ___fldiv@aexp 0039             ___fldiv@bexp 0038             ___fldiv@sign 0031  
            _SSPSTATbits 0094                       l63 0D99                       l65 0D9D  
                     l57 07E9                       l66 0DA9                       l58 07E9  
    __Umul8_16@word_mpld 0076                      _PR2 0092                      _isr 0DAA  
           ___flmul@aexp 004C             ___flmul@bexp 004D             ___flmul@sign 0047  
           ___flmul@temp 0052             ___flmul@prod 004E             ___fltol@exp1 006D  
                   l1901 0D95                     l1903 0D97                     l1905 0D98  
                   l1871 0D6D                     l1919 07E4                     l1881 0D7D  
                   l1873 0D73                     l1865 0D62                     l1891 0D84  
                   l1883 0D7E                     l1875 0D74                     l1867 0D66  
                   l1893 0D86                     l1885 0D7F                     l1877 0D76  
                   l1869 0D6A                     l1895 0D89                     l1887 0D82  
                   l1879 0D79                     l1897 0D8B                     l1889 0D83  
                   l1899 0D91                     ?_isr 0070                     _CCPR 00B0  
                   u2810 0D9D                     u2811 0D9C                     i1l52 0DED  
                   i1l69 0F45                     _main 07E4                     btemp 007E  
                   start 0010          ___fldiv@new_exp 0032                    ??_isr 00AB  
          ___fltol@sign1 006C          __end_of___fladd 0607                    ?_main 0070  
        __end_of___fldiv 07E4          __end_of___flmul 037F          __end_of___fltol 0E94  
                  _ANSEL 0188                    i1l341 0E93                    i1l351 0E93  
                  i1l520 0755                    i1l504 0663                    i1l601 0FC9  
                  i1l506 07E3                    i1l602 0FD5                    i1l452 0489  
                  i1l348 0E7E                    i1l461 0606                    i1l454 0460  
                  i1l526 07C7                    i1l550 02EA                    i1l448 03E2  
                  i1l528 07D7                    i1l544 037E                    i1l473 0578  
                  i1l490 05FA                    i1l482 05D8                    i1l491 0606  
                  i1l563 0D4F                    i1l556 0372                    i1l469 0554  
                  i1l565 0D61                    i1l590 0FFF                    i1l479 059A  
                  i1l594 0FAD                    i1l588 0F68                    _PORTA 0005  
                  _PORTC 0007                    _TRISA 0085                    _TRISC 0087  
                  _setup 0D62                    pclath 000A                    status 0003  
                  wtemp0 007E          __initialization 0013             __end_of_main 07ED  
                 ??_main 00B0                   _CCPR1L 0015                   ?_setup 0070  
                 _ANSELH 0189                   i1l1301 0D5D                   i1l1311 0E12  
                 i1l1401 0408                   i1l1321 0E46                   i1l1313 0E37  
                 i1l1305 0DF8                   i1l1411 041C                   i1l1403 040C  
                 i1l1315 0E38                   i1l1307 0E09                   i1l1501 0591  
                 i1l1421 042D                   i1l1413 0420                   i1l1405 0410  
                 i1l1341 037F                   i1l1317 0E40                   i1l1511 05B2  
                 i1l1503 0597                   i1l1431 0473                   i1l1423 0444  
                 i1l1415 0424                   i1l1407 0414                   i1l1351 0396  
                 i1l1343 0386                   i1l1335 0E6B                   i1l1327 0E4E  
                 i1l1319 0E42                   u200_20 0605                   u200_21 0604  
                 i1l1521 05EA                   i1l1513 05B6                   i1l1441 0492  
                 i1l1433 0474                   i1l1425 0464                   i1l1417 0428  
                 i1l1409 0418                   i1l1361 03AE                   i1l1353 039B  
                 i1l1345 038C                   i1l1601 06C3                   i1l1337 0E83  
                 i1l1329 0E64                   i1l1531 0601                   i1l1523 05EF  
                 i1l1515 05D4                   i1l1507 059F                   i1l1451 04BA  
                 i1l1435 047D                   i1l1427 046D                   i1l1419 042C  
                 i1l1371 03C4                   i1l1363 03B3                   i1l1355 03A3  
                 i1l1347 0390                   i1l1611 06F5                   i1l1603 06D5  
                 i1l1291 0D3C                   i1l1339 0E88                   i1l1533 0605  
                 i1l1525 05F0                   i1l1517 05DD                   i1l1509 05A4  
                 i1l1461 04D3                   i1l1453 04C3                   i1l1445 049B  
                 i1l1429 046F                   i1l1437 0481                   i1l1381 03D8  
                 i1l1373 03C5                   i1l1365 03B9                   i1l1357 03A4  
                 i1l1349 0391                   i1l1621 0716                   i1l1613 06F6  
                 i1l1605 06D9                   i1l1541 0618                   i1l1293 0D3E  
                 i1l1701 005B                   i1l1527 05F4                   i1l1519 05E2  
                 i1l1471 0537                   i1l1455 04C5                   i1l1447 04B2  
                 i1l1439 048D                   i1l1463 04D8                   i1l1391 03F4  
                 i1l1375 03CA                   i1l1383 03DA                   i1l1367 03BA  
                 i1l1359 03A6                   i1l1631 072F                   i1l1623 0718  
                 i1l1615 0704                   i1l1607 06DA                   i1l1551 062C  
                 i1l1543 0619                   i1l1535 0607                   i1l1295 0D45  
                 i1l1711 0070                   i1l1703 005C                   u201_20 0618  
                 i1l1529 05F6                   i1l1481 056A                   i1l1465 04EE  
                 i1l1473 0546                   i1l1457 04C9                   i1l1449 04B6  
                 i1l1393 03F8                   i1l1385 03E8                   i1l1377 03CF  
                 i1l1369 03C0                   i1l1641 0752                   i1l1625 0721  
                 i1l1633 0735                   i1l1609 06E3                   i1l1617 0708  
                 i1l1561 0645                   i1l1545 061E                   i1l1553 062E  
                 u201_21 0617                   i1l1537 060E                   i1l1297 0D49  
                 i1l1801 034C                   i1l1721 008B                   i1l1713 0078  
                 i1l1705 0061                   i1l1491 0581                   i1l1483 0573  
                 i1l1475 055C                   i1l1467 052C                   i1l1459 04CA  
                 i1l1395 03FC                   i1l1387 03EC                   i1l1379 03D7  
                 i1l1651 0771                   i1l1635 0739                   i1l1627 0725  
                 i1l1619 070E                   i1l1571 0659                   i1l1563 0646  
                 i1l1555 0636                   i1l1547 0623                   i1l1539 0614  
                 i1l1299 0D58                   i1l1811 036B                   i1l1803 0356  
                 i1l1731 010D                   i1l1723 009B                   i1l1715 007D  
                 i1l1707 0066                   i1l1493 0586                   i1l1485 0577  
                 i1l1477 0561                   i1l1469 0532                   i1l1397 0400  
                 i1l1389 03F0                   i1l1661 07BA                   i1l1653 078A  
                 i1l1645 075A                   i1l1637 073A                   i1l1629 0726  
                 i1l1565 064B                   i1l1573 065B                   i1l1557 063B  
                 i1l1549 062B                   i1l1813 0376                   i1l1805 0358  
                 i1l1741 017B                   i1l1733 0129                   i1l1725 00A8  
                 i1l1717 0082                   i1l1709 006E                   i1l1821 0F50  
                 i1l1487 057C                   i1l1495 0588                   i1l1399 0404  
                 i1l1671 07D3                   i1l1663 07BE                   i1l1647 075F  
                 i1l1655 0790                   i1l1639 073E                   i1l1591 06A4  
                 i1l1575 066B                   i1l1583 0684                   i1l1567 0650  
                 i1l1559 0641                   i1l1807 0366                   i1l1751 020B  
                 i1l1743 018B                   i1l1735 0145                   i1l1727 00C5  
                 i1l1831 0F7E                   i1l1823 0F60                   i1l1911 0DCD  
                 u202_20 061E                   i1l1489 057F                   i1l1497 058C  
                 i1l1665 07C6                   i1l1657 079D                   i1l1649 076D  
                 i1l1593 06AC                   i1l1585 0689                   i1l1577 0677  
                 i1l1569 0658                   u202_21 061D                   i1l1809 036A  
                 i1l1761 029F                   i1l1753 021B                   i1l1745 01A8  
                 i1l1737 014E                   i1l1729 00E1                   i1l1681 002B  
                 i1l1841 0FB4                   i1l1833 0F8B                   i1l1825 0F70  
                 i1l1817 0F47                   i1l1913 0DDB                   i1l1499 058D  
                 i1l1667 07CD                   i1l1659 07AB                   i1l1595 06B4  
                 i1l1579 067B                   i1l1771 02C4                   i1l1763 02AD  
                 i1l1755 0248                   i1l1747 01C1                   i1l1739 015E  
                 i1l1691 0042                   i1l1683 002F                   i1l1851 0FED  
                 i1l1843 0FBF                   i1l1835 0F92                   i1l1819 0F4C  
                 i1l1915 0DEC                   i1l1907 0DAA                   i1l1669 07D1  
                 u210_25 06C5                   i1l1597 06BC                   i1l1589 0692  
                 i1l1781 02E7                   i1l1765 02B6                   i1l1773 02CA  
                 i1l1757 026E                   i1l1749 01DE                   i1l1693 0044  
                 i1l1685 0030                   i1l1677 001E                   i1l1853 0FF2  
                 i1l1845 0FC3                   i1l1837 0F96                   i1l1829 0F79  
                 i1l1861 0E97                   i1l1909 0DB0                   i1l1599 06BE  
                 i1l1791 0306                   i1l1775 02CE                   i1l1767 02BA  
                 i1l1759 0296                   i1l1695 004C                   i1l1687 0035  
                 i1l1679 0025                   i1l1855 0FF6                   i1l1847 0FCD  
                 i1l1839 0FA4                   u203_20 0623                   u203_21 0622  
                 i1l1793 031F                   i1l1785 02EF                   i1l1777 02CF  
                 i1l1769 02BB                   i1l1697 0051                   i1l1689 003A  
                 i1l1857 0FF7                   i1l1849 0FD7                   i1l1787 02F4  
                 i1l1795 0325                   i1l1779 02D3                   i1l1699 0057  
                 u211_25 06CE                   i1l1797 0332                   i1l1789 0302  
                 i1l1799 033D                   u220_20 0739                   u212_20 06D9  
                 u204_20 0645                   u220_21 0738                   u212_21 06D8  
                 u204_21 0644                   u221_20 073E                   u205_20 064B  
                 u221_21 073D                   u205_21 064A                   u213_25 06DC  
                 u222_20 0752                   u214_20 06F5                   u206_20 0650  
                 u142_20 0D49                   u230_20 002F                   u150_20 0E63  
                 u222_21 0751                   u214_21 06F4                   u206_21 064F  
                 u142_21 0D48                   u230_21 002E                   u150_21 0E62  
                 u214_25 06F1                   u223_20 0759                   u215_20 070E  
                 u207_20 066B                   u231_20 0035                   u151_20 0E6A  
                 u223_21 0758                   u215_21 070D                   u207_21 066A  
                 u231_21 0034                   u151_21 0E69                   u143_25 0D50  
                 u160_20 03CA                   u224_20 075F                   u216_20 0716  
                 u208_20 0689                   u144_20 0D5D                   u232_20 003A  
                 u160_21 03C9                   u224_21 075E                   u216_21 0715  
                 u208_21 0688                   u144_21 0D5C                   u240_21 011B  
                 u232_21 0039                   u240_22 0122                   u240_23 0129  
                 u152_25 0E6F                   u161_20 03CF                   u225_20 0771  
                 u209_20 06C3                   u233_20 005B                   u153_20 0E83  
                 u145_20 0E09                   u161_21 03CE                   u225_21 0770  
                 u209_21 06C2                   u241_21 0137                   u233_21 005A  
                 u153_21 0E82                   u145_21 0E08                   u241_22 013E  
                 u241_23 0145                   u217_25 071A                   u170_20 0489  
                 u162_20 03E8                   u226_20 0780                   u218_20 0725  
                 u234_20 0061                   u154_20 0E88                   u146_20 0E2E  
                 u170_21 0488                   u162_21 03E7                   u218_21 0724  
                 u250_21 0260                   u234_21 0060                   u154_21 0E87  
                 u250_22 0267                   u250_23 026E                   u226_25 077B  
                 u242_25 0147                   u146_25 0E29                   u171_20 048D  
                 u163_20 03EC                   u155_20 0390                   u227_20 079D  
                 u251_20 027C                   u235_20 0066                   u147_20 0E46  
                 u171_21 048C                   u163_21 03EB                   u155_21 038F  
                 u227_21 079C                   u243_21 016D                   u235_21 0065  
                 u147_21 0E45                   u243_22 0174                   u243_23 017B  
                 u227_25 0799                   u219_25 0728                   u251_25 0277  
                 u180_20 0519                   u172_20 0492                   u164_20 0444  
                 u156_20 0396                   u228_20 07BA                   u260_20 02EE  
                 u236_20 007D                   u148_20 0E4D                   u180_21 051A  
                 u172_21 0491                   u164_21 0443                   u156_21 0395  
                 u228_21 07B9                   u260_21 02ED                   u252_21 0288  
                 u244_21 019A                   u236_21 007C                   u148_21 0E4C  
                 u180_22 051F                   u252_22 028F                   u244_22 01A1  
                 u180_23 0520                   u252_23 0296                   u244_23 01A8  
                 u164_25 0440                   u228_25 07B6                   u181_20 0537  
                 u165_20 044F                   u157_20 039B                   u229_20 07D1  
                 u261_20 02F4                   u237_20 0082                   u181_21 0536  
                 u173_21 04A4                   u165_21 044D                   u157_21 039A  
                 u229_21 07D0                   u261_21 02F3                   u237_21 0081  
                 u173_22 04AB                   u173_23 04B2                   u253_25 0298  
                 u245_25 01AA                   u149_25 0E4F                   u190_20 0597  
                 u182_20 055C                   u174_20 04B6                   u166_20 0450  
                 u158_20 03B9                   u262_20 0306                   u190_21 0596  
                 u182_21 055B                   u174_21 04B5                   u158_21 03B8  
                 u262_21 0305                   u246_21 01D0                   u238_21 00D3  
                 u246_22 01D7                   u238_22 00DA                   u246_23 01DE  
                 u238_23 00E1                   u254_25 02AF                   u270_25 0F83  
                 u191_20 059E                   u183_20 0561                   u175_20 04BA  
                 u167_20 0464                   u159_20 03C4                   u263_20 0315  
                 u255_20 02BA                   u271_20 0F91                   u191_21 059D  
                 u183_21 0560                   u175_21 04B9                   u167_21 0463  
                 u159_21 03C3                   u255_21 02B9                   u247_21 01FD  
                 u239_21 00EF                   u271_21 0F90                   u247_22 0204  
                 u239_22 00F6                   u247_23 020B                   u239_23 00FD  
                 u263_25 0310                   u192_20 05A4                   u176_20 04C9  
                 u168_20 0473                   u264_20 0332                   u280_20 0FF6  
                 u192_21 05A3                   u176_21 04C8                   u168_21 0472  
                 u264_21 0331                   u248_21 022A                   u280_21 0FF5  
                 u248_22 0231                   u248_23 0238                   u184_25 056C  
                 u264_25 032E                   u256_25 02BD                   u272_25 0FA5  
                 u193_20 05B6                   u185_20 0577                   u265_20 034C  
                 u257_20 02CE                   u249_20 0254                   u273_20 0FB3  
                 u193_21 05B5                   u185_21 0576                   u265_21 034B  
                 u257_21 02CD                   u273_21 0FB2                   u177_25 04CC  
                 u169_25 0476                   u265_25 0348                   u249_25 024F  
                 u194_20 05C5                   u186_20 057C                   u178_20 04EE  
                 u266_20 036A                   u258_20 02D3                   u282_20 0DB0  
                 u186_21 057B                   u178_21 04ED                   u266_21 0369  
                 u258_21 02D2                   u282_21 0DAF                   u178_23 04EA  
                 u194_25 05C0                   u274_25 0FB8                   u195_20 05D4  
                 u187_20 0586                   u259_20 02E7                   u275_20 0FC3  
                 u267_20 0F4C                   u195_21 05D3                   u187_21 0585  
                 u179_21 0505                   u259_21 02E6                   u275_21 0FC2  
                 u267_21 0F4B                   u179_22 0506                   u179_23 050B  
                 u179_24 050C                   u179_25 0511                   u179_26 0512  
                 u196_20 05DD                   u188_20 058C                   u276_20 0FC9  
                 u268_20 0F50                   u196_21 05DC                   u188_21 058B  
                 u276_21 0FC8                   u268_21 0F4F                   u197_20 05E2  
                 u189_20 0591                   u277_20 0FCD                   u269_20 0F70  
                 u197_21 05E1                   u189_21 0590                   u277_21 0FCC  
                 u269_21 0F6F                   u198_20 05EF                   u278_20 0FE2  
                 u198_21 05EE                   u278_25 0FDD                   u199_20 05F4  
                 u279_20 0FF2                   u199_21 05F3                   u279_21 0FF1  
                 _SSPBUF 0013         __end_of___xxtofl 1000                ??___fladd 005C  
              ??___fldiv 0028                ??___flmul 0042                ??___fltol 00A0  
       __end_of_interpol 0F46                   _pwm_va 006F                   saved_w 007E  
           ___xxtofl@arg 007A             ___xxtofl@exp 0079             ___xxtofl@val 0070  
__end_of__initialization 001A               ___fltol@f1 0068           __pcstackCOMMON 0070  
          __end_of_setup 0DAA              interpol@val 006E                  ??_setup 00B0  
             __pbssBANK0 006F               __pbssBANK1 00B0        __end_of__Umul8_16 0D62  
             __pmaintext 07E4               __pintentry 0004                  _CCP1CON 0017  
              ?___xxtofl 0070                ?_interpol 00A5                  ___fladd 037F  
                ___fldiv 0607                  ___flmul 001E                  ___fltol 0DF8  
                __ptext1 0D62                  __ptext2 0DAA                  __ptext3 0E94  
                __ptext4 0F46                  __ptext5 0DF8                  __ptext6 001E  
                __ptext7 0D3B                  __ptext8 0607                  __ptext9 037F  
              _T2CONbits 0012               ??___xxtofl 0074     end_of_initialization 001A  
             ??_interpol 007E              ___fladd@grs 0067            ___xxtofl@sign 0078  
              _TRISCbits 0087              ___fldiv@grs 0034              ___fldiv@rem 002D  
            ___flmul@grs 0048              _CCP1CONbits 0017      start_initialization 0013  
            __end_of_isr 0DF8                __Umul8_16 0D3B                ___fladd@a 0058  
              ___fladd@b 0054                ___fldiv@a 0020                ___fldiv@b 0024  
              ___flmul@a 003E                ___flmul@b 003A                ___latbits 0002  
          __pcstackBANK0 0020            __pcstackBANK1 00A0                 ?___fladd 0054  
               ?___fldiv 0020                 ?___flmul 003A                 ?___fltol 0068  
             ?__Umul8_16 0070        interrupt_function 0004                 _PIE1bits 008C  
               _PIR1bits 000C          interpol@pot_max 00A6          interpol@pot_min 00A5  
        interpol@pwm_max 00A9          interpol@pwm_min 00A7              ??__Umul8_16 0072  
               ___xxtofl 0F46                 _interpol 0E94               _INTCONbits 000B  
               intlevel1 0000               _OSCCONbits 008F   __Umul8_16@multiplicand 0070  
          ___fladd@signs 0064             ___fladd@aexp 0065             ___fladd@bexp 0066  
   __Umul8_16@multiplier 0078               _SSPCONbits 0014        __Umul8_16@product 0074  
